Archive member included because of file (symbol)

/usr/local/bin/../lib/gcc/arm-none-eabi/4.4.1/thumb2/libgcc.a(_arm_addsubdf3.o)
                              build//Users/marcus/Dropbox/Studienarbeit/Sourcecode/StudienarbeitX/Library/libmaple/wirish/Print.o (__aeabi_dsub)
/usr/local/bin/../lib/gcc/arm-none-eabi/4.4.1/thumb2/libgcc.a(_arm_muldivdf3.o)
                              build//Users/marcus/Dropbox/Studienarbeit/Sourcecode/StudienarbeitX/Library/libmaple/wirish/Print.o (__aeabi_dmul)
/usr/local/bin/../lib/gcc/arm-none-eabi/4.4.1/thumb2/libgcc.a(_arm_cmpdf2.o)
                              build//Users/marcus/Dropbox/Studienarbeit/Sourcecode/StudienarbeitX/Library/libmaple/wirish/Print.o (__aeabi_dcmplt)
/usr/local/bin/../lib/gcc/arm-none-eabi/4.4.1/thumb2/libgcc.a(_arm_fixdfsi.o)
                              build//Users/marcus/Dropbox/Studienarbeit/Sourcecode/StudienarbeitX/Library/libmaple/wirish/Print.o (__aeabi_d2iz)
/usr/local/bin/../lib/gcc/arm-none-eabi/4.4.1/thumb2/libgcc.a(_arm_muldivsf3.o)
                              build//Users/marcus/Dropbox/Studienarbeit/Sourcecode/StudienarbeitX/Library/WiFlySerial/WiFlySerial.o (__aeabi_fmul)
/usr/local/bin/../lib/gcc/arm-none-eabi/4.4.1/thumb2/libgcc.a(_arm_fixsfsi.o)
                              build//Users/marcus/Dropbox/Studienarbeit/Sourcecode/StudienarbeitX/Library/WiFlySerial/WiFlySerial.o (__aeabi_f2iz)
/usr/local/bin/../lib/gcc/arm-none-eabi/4.4.1/thumb2/libgcc.a(_aeabi_uldivmod.o)
                              build//Users/marcus/Dropbox/Studienarbeit/Sourcecode/StudienarbeitX/Library/libmaple/wirish/Print.o (__aeabi_uldivmod)
/usr/local/bin/../lib/gcc/arm-none-eabi/4.4.1/thumb2/libgcc.a(_fixdfdi.o)
                              build//Users/marcus/Dropbox/Studienarbeit/Sourcecode/StudienarbeitX/Library/libmaple/wirish/Print.o (__aeabi_d2lz)
/usr/local/bin/../lib/gcc/arm-none-eabi/4.4.1/thumb2/libgcc.a(_fixunsdfdi.o)
                              /usr/local/bin/../lib/gcc/arm-none-eabi/4.4.1/thumb2/libgcc.a(_fixdfdi.o) (__aeabi_d2ulz)
/usr/local/bin/../lib/gcc/arm-none-eabi/4.4.1/thumb2/libgcc.a(bpabi.o)
                              /usr/local/bin/../lib/gcc/arm-none-eabi/4.4.1/thumb2/libgcc.a(_aeabi_uldivmod.o) (__gnu_uldivmod_helper)
/usr/local/bin/../lib/gcc/arm-none-eabi/4.4.1/thumb2/libgcc.a(_dvmd_tls.o)
                              /usr/local/bin/../lib/gcc/arm-none-eabi/4.4.1/thumb2/libgcc.a(_aeabi_uldivmod.o) (__aeabi_ldiv0)
/usr/local/bin/../lib/gcc/arm-none-eabi/4.4.1/thumb2/libgcc.a(_arm_fixunsdfsi.o)
                              /usr/local/bin/../lib/gcc/arm-none-eabi/4.4.1/thumb2/libgcc.a(_fixunsdfdi.o) (__aeabi_d2uiz)
/usr/local/bin/../lib/gcc/arm-none-eabi/4.4.1/thumb2/libgcc.a(_divdi3.o)
                              /usr/local/bin/../lib/gcc/arm-none-eabi/4.4.1/thumb2/libgcc.a(bpabi.o) (__divdi3)
/usr/local/bin/../lib/gcc/arm-none-eabi/4.4.1/thumb2/libgcc.a(_udivdi3.o)
                              /usr/local/bin/../lib/gcc/arm-none-eabi/4.4.1/thumb2/libgcc.a(bpabi.o) (__udivdi3)
/usr/local/bin/../lib/gcc/arm-none-eabi/4.4.1/thumb2/libgcc.a(_udivsi3.o)
                              /usr/local/bin/../lib/gcc/arm-none-eabi/4.4.1/thumb2/libgcc.a(_divdi3.o) (__aeabi_uidiv)
/usr/local/bin/../lib/gcc/arm-none-eabi/4.4.1/../../../../arm-none-eabi/lib/thumb2/libc.a(lib_a-atol.o)
                              build//Users/marcus/Dropbox/Studienarbeit/Sourcecode/StudienarbeitX/Library/TinyWebServer/TinyWebServer.o (atol)
/usr/local/bin/../lib/gcc/arm-none-eabi/4.4.1/../../../../arm-none-eabi/lib/thumb2/libc.a(lib_a-errno.o)
                              build//Users/marcus/Dropbox/Studienarbeit/Sourcecode/StudienarbeitX/Library/libmaple/wirish/syscalls.o (__errno)
/usr/local/bin/../lib/gcc/arm-none-eabi/4.4.1/../../../../arm-none-eabi/lib/thumb2/libc.a(lib_a-impure.o)
                              /usr/local/bin/../lib/gcc/arm-none-eabi/4.4.1/../../../../arm-none-eabi/lib/thumb2/libc.a(lib_a-errno.o) (_impure_ptr)
/usr/local/bin/../lib/gcc/arm-none-eabi/4.4.1/../../../../arm-none-eabi/lib/thumb2/libc.a(lib_a-init.o)
                              build//Users/marcus/Dropbox/Studienarbeit/Sourcecode/StudienarbeitX/Library/libmaple/wirish/start_c.o (__libc_init_array)
/usr/local/bin/../lib/gcc/arm-none-eabi/4.4.1/../../../../arm-none-eabi/lib/thumb2/libc.a(lib_a-isalnum.o)
                              build//Users/marcus/Dropbox/Studienarbeit/Sourcecode/StudienarbeitX/Library/TinyWebServer/TinyWebServer.o (isalnum)
/usr/local/bin/../lib/gcc/arm-none-eabi/4.4.1/../../../../arm-none-eabi/lib/thumb2/libc.a(lib_a-isspace.o)
                              build//Users/marcus/Dropbox/Studienarbeit/Sourcecode/StudienarbeitX/Library/TinyWebServer/TinyWebServer.o (isspace)
/usr/local/bin/../lib/gcc/arm-none-eabi/4.4.1/../../../../arm-none-eabi/lib/thumb2/libc.a(lib_a-malloc.o)
                              build//Users/marcus/Dropbox/Studienarbeit/Sourcecode/StudienarbeitX/Library/TinyWebServer/TinyWebServer.o (free)
/usr/local/bin/../lib/gcc/arm-none-eabi/4.4.1/../../../../arm-none-eabi/lib/thumb2/libc.a(lib_a-mallocr.o)
                              /usr/local/bin/../lib/gcc/arm-none-eabi/4.4.1/../../../../arm-none-eabi/lib/thumb2/libc.a(lib_a-malloc.o) (_malloc_r)
/usr/local/bin/../lib/gcc/arm-none-eabi/4.4.1/../../../../arm-none-eabi/lib/thumb2/libc.a(lib_a-memcmp.o)
                              build//Users/marcus/Dropbox/Studienarbeit/Sourcecode/StudienarbeitX/Library/WiFlySerial/WFSIPAddress.o (memcmp)
/usr/local/bin/../lib/gcc/arm-none-eabi/4.4.1/../../../../arm-none-eabi/lib/thumb2/libc.a(lib_a-memcpy.o)
                              build//Users/marcus/Dropbox/Studienarbeit/Sourcecode/StudienarbeitX/Library/TinyWebServer/TinyWebServer.o (memcpy)
/usr/local/bin/../lib/gcc/arm-none-eabi/4.4.1/../../../../arm-none-eabi/lib/thumb2/libc.a(lib_a-memset.o)
                              build//Users/marcus/Dropbox/Studienarbeit/Sourcecode/StudienarbeitX/Library/WiFlySerial/WiFlySerial.o (memset)
/usr/local/bin/../lib/gcc/arm-none-eabi/4.4.1/../../../../arm-none-eabi/lib/thumb2/libc.a(lib_a-mlock.o)
                              /usr/local/bin/../lib/gcc/arm-none-eabi/4.4.1/../../../../arm-none-eabi/lib/thumb2/libc.a(lib_a-mallocr.o) (__malloc_lock)
/usr/local/bin/../lib/gcc/arm-none-eabi/4.4.1/../../../../arm-none-eabi/lib/thumb2/libc.a(lib_a-rand.o)
                              build//Users/marcus/Dropbox/Studienarbeit/Sourcecode/StudienarbeitX/Library/libmaple/wirish/wirish_math.o (rand)
/usr/local/bin/../lib/gcc/arm-none-eabi/4.4.1/../../../../arm-none-eabi/lib/thumb2/libc.a(lib_a-sbrkr.o)
                              /usr/local/bin/../lib/gcc/arm-none-eabi/4.4.1/../../../../arm-none-eabi/lib/thumb2/libc.a(lib_a-mallocr.o) (_sbrk_r)
/usr/local/bin/../lib/gcc/arm-none-eabi/4.4.1/../../../../arm-none-eabi/lib/thumb2/libc.a(lib_a-strcat.o)
                              build//Users/marcus/Dropbox/Studienarbeit/Sourcecode/StudienarbeitX/Library/WiFlySerial/WiFlySerial.o (strcat)
/usr/local/bin/../lib/gcc/arm-none-eabi/4.4.1/../../../../arm-none-eabi/lib/thumb2/libc.a(lib_a-strchr.o)
                              build//Users/marcus/Dropbox/Studienarbeit/Sourcecode/StudienarbeitX/Library/TinyWebServer/TinyWebServer.o (strchr)
/usr/local/bin/../lib/gcc/arm-none-eabi/4.4.1/../../../../arm-none-eabi/lib/thumb2/libc.a(lib_a-strcmp.o)
                              build//Users/marcus/Dropbox/Studienarbeit/Sourcecode/StudienarbeitX/Library/TinyWebServer/TinyWebServer.o (strcmp)
/usr/local/bin/../lib/gcc/arm-none-eabi/4.4.1/../../../../arm-none-eabi/lib/thumb2/libc.a(lib_a-strcpy.o)
                              build//Users/marcus/Dropbox/Studienarbeit/Sourcecode/StudienarbeitX/Library/TinyWebServer/TinyWebServer.o (strcpy)
/usr/local/bin/../lib/gcc/arm-none-eabi/4.4.1/../../../../arm-none-eabi/lib/thumb2/libc.a(lib_a-strlen.o)
                              build//Users/marcus/Dropbox/Studienarbeit/Sourcecode/StudienarbeitX/Library/libmaple/wirish/usb_serial.o (strlen)
/usr/local/bin/../lib/gcc/arm-none-eabi/4.4.1/../../../../arm-none-eabi/lib/thumb2/libc.a(lib_a-strncat.o)
                              build//Users/marcus/Dropbox/Studienarbeit/Sourcecode/StudienarbeitX/Library/WiFlySerial/WiFlySerial.o (strncat)
/usr/local/bin/../lib/gcc/arm-none-eabi/4.4.1/../../../../arm-none-eabi/lib/thumb2/libc.a(lib_a-strncmp.o)
                              build//Users/marcus/Dropbox/Studienarbeit/Sourcecode/StudienarbeitX/Library/TinyWebServer/TinyWebServer.o (strncmp)
/usr/local/bin/../lib/gcc/arm-none-eabi/4.4.1/../../../../arm-none-eabi/lib/thumb2/libc.a(lib_a-strncpy.o)
                              build//Users/marcus/Dropbox/Studienarbeit/Sourcecode/StudienarbeitX/Library/TinyWebServer/TinyWebServer.o (strncpy)
/usr/local/bin/../lib/gcc/arm-none-eabi/4.4.1/../../../../arm-none-eabi/lib/thumb2/libc.a(lib_a-strrchr.o)
                              build//Users/marcus/Dropbox/Studienarbeit/Sourcecode/StudienarbeitX/Library/TinyWebServer/TinyWebServer.o (strrchr)
/usr/local/bin/../lib/gcc/arm-none-eabi/4.4.1/../../../../arm-none-eabi/lib/thumb2/libc.a(lib_a-strstr.o)
                              build//Users/marcus/Dropbox/Studienarbeit/Sourcecode/StudienarbeitX/Library/WiFlySerial/WiFlySerial.o (strstr)
/usr/local/bin/../lib/gcc/arm-none-eabi/4.4.1/../../../../arm-none-eabi/lib/thumb2/libc.a(lib_a-strtol.o)
                              /usr/local/bin/../lib/gcc/arm-none-eabi/4.4.1/../../../../arm-none-eabi/lib/thumb2/libc.a(lib_a-atol.o) (_strtol_r)
/usr/local/bin/../lib/gcc/arm-none-eabi/4.4.1/../../../../arm-none-eabi/lib/thumb2/libc.a(lib_a-strtoul.o)
                              build//Users/marcus/Dropbox/Studienarbeit/Sourcecode/StudienarbeitX/Library/TinyWebServer/TinyWebServer.o (strtoul)
/usr/local/bin/../lib/gcc/arm-none-eabi/4.4.1/../../../../arm-none-eabi/lib/thumb2/libc.a(lib_a-strupr.o)
                              build//Users/marcus/Dropbox/Studienarbeit/Sourcecode/StudienarbeitX/Library/WiFlySerial/WiFlySerial.o (strupr)
/usr/local/bin/../lib/gcc/arm-none-eabi/4.4.1/../../../../arm-none-eabi/lib/thumb2/libc.a(lib_a-toupper.o)
                              build//Users/marcus/Dropbox/Studienarbeit/Sourcecode/StudienarbeitX/Library/TinyWebServer/TinyWebServer.o (toupper)
/usr/local/bin/../lib/gcc/arm-none-eabi/4.4.1/../../../../arm-none-eabi/lib/thumb2/libc.a(lib_a-ctype_.o)
                              /usr/local/bin/../lib/gcc/arm-none-eabi/4.4.1/../../../../arm-none-eabi/lib/thumb2/libc.a(lib_a-isalnum.o) (__ctype_ptr__)
/usr/local/bin/../lib/gcc/arm-none-eabi/4.4.1/../../../../arm-none-eabi/lib/thumb2/libc.a(lib_a-freer.o)
                              /usr/local/bin/../lib/gcc/arm-none-eabi/4.4.1/../../../../arm-none-eabi/lib/thumb2/libc.a(lib_a-malloc.o) (_free_r)
/usr/local/bin/../lib/gcc/arm-none-eabi/4.4.1/../../../../arm-none-eabi/lib/thumb2/libc.a(lib_a-reent.o)
                              /usr/local/bin/../lib/gcc/arm-none-eabi/4.4.1/../../../../arm-none-eabi/lib/thumb2/libc.a(lib_a-sbrkr.o) (errno)

Allocating common symbols
Common symbol       size              file

SaveRState          0x2               build//Users/marcus/Dropbox/Studienarbeit/Sourcecode/StudienarbeitX/Library/libmaple/libmaple/usb/stm32f1/usb.o
SaveState           0x2               build//Users/marcus/Dropbox/Studienarbeit/Sourcecode/StudienarbeitX/Library/libmaple/libmaple/usb/usb_lib/usb_init.o
errno               0x4               /usr/local/bin/../lib/gcc/arm-none-eabi/4.4.1/../../../../arm-none-eabi/lib/thumb2/libc.a(lib_a-reent.o)
vcomBufferRx        0xc0              build//Users/marcus/Dropbox/Studienarbeit/Sourcecode/StudienarbeitX/Library/libmaple/libmaple/usb/stm32f1/usb_cdcacm.o
pProperty           0x4               build//Users/marcus/Dropbox/Studienarbeit/Sourcecode/StudienarbeitX/Library/libmaple/libmaple/usb/usb_lib/usb_init.o
EPindex             0x1               build//Users/marcus/Dropbox/Studienarbeit/Sourcecode/StudienarbeitX/Library/libmaple/libmaple/usb/usb_lib/usb_init.o
SaveTState          0x2               build//Users/marcus/Dropbox/Studienarbeit/Sourcecode/StudienarbeitX/Library/libmaple/libmaple/usb/stm32f1/usb.o
systick_uptime_millis
                    0x4               build//Users/marcus/Dropbox/Studienarbeit/Sourcecode/StudienarbeitX/Library/libmaple/libmaple/systick.o
Device_Info         0x1c              build//Users/marcus/Dropbox/Studienarbeit/Sourcecode/StudienarbeitX/Library/libmaple/libmaple/usb/usb_lib/usb_init.o
pUser_Standard_Requests
                    0x4               build//Users/marcus/Dropbox/Studienarbeit/Sourcecode/StudienarbeitX/Library/libmaple/libmaple/usb/usb_lib/usb_init.o
StatusInfo          0x2               build//Users/marcus/Dropbox/Studienarbeit/Sourcecode/StudienarbeitX/Library/libmaple/libmaple/usb/usb_lib/usb_core.o
pInformation        0x4               build//Users/marcus/Dropbox/Studienarbeit/Sourcecode/StudienarbeitX/Library/libmaple/libmaple/usb/usb_lib/usb_init.o
ResumeS             0x2               build//Users/marcus/Dropbox/Studienarbeit/Sourcecode/StudienarbeitX/Library/libmaple/libmaple/usb/stm32f1/usb.o
wInterrupt_Mask     0x2               build//Users/marcus/Dropbox/Studienarbeit/Sourcecode/StudienarbeitX/Library/libmaple/libmaple/usb/usb_lib/usb_init.o

Discarded input sections

 .text          0x00000000        0x0 /usr/local/bin/../lib/gcc/arm-none-eabi/4.4.1/thumb2/crti.o
 .data          0x00000000        0x0 /usr/local/bin/../lib/gcc/arm-none-eabi/4.4.1/thumb2/crti.o
 .bss           0x00000000        0x0 /usr/local/bin/../lib/gcc/arm-none-eabi/4.4.1/thumb2/crti.o
 .data          0x00000000        0x4 /usr/local/bin/../lib/gcc/arm-none-eabi/4.4.1/thumb2/crtbegin.o
 .text          0x00000000        0x0 build//Users/marcus/Dropbox/Studienarbeit/Sourcecode/StudienarbeitX/Library/libmaple/libmaple/adc.o
 .data          0x00000000        0x0 build//Users/marcus/Dropbox/Studienarbeit/Sourcecode/StudienarbeitX/Library/libmaple/libmaple/adc.o
 .bss           0x00000000        0x0 build//Users/marcus/Dropbox/Studienarbeit/Sourcecode/StudienarbeitX/Library/libmaple/libmaple/adc.o
 .text.adc_read
                0x00000000       0x22 build//Users/marcus/Dropbox/Studienarbeit/Sourcecode/StudienarbeitX/Library/libmaple/libmaple/adc.o
 .text          0x00000000        0x0 build//Users/marcus/Dropbox/Studienarbeit/Sourcecode/StudienarbeitX/Library/libmaple/libmaple/dac.o
 .data          0x00000000        0x0 build//Users/marcus/Dropbox/Studienarbeit/Sourcecode/StudienarbeitX/Library/libmaple/libmaple/dac.o
 .bss           0x00000000        0x0 build//Users/marcus/Dropbox/Studienarbeit/Sourcecode/StudienarbeitX/Library/libmaple/libmaple/dac.o
 .text.dac_write_channel
                0x00000000       0x1e build//Users/marcus/Dropbox/Studienarbeit/Sourcecode/StudienarbeitX/Library/libmaple/libmaple/dac.o
 .text.dac_disable_channel
                0x00000000       0x22 build//Users/marcus/Dropbox/Studienarbeit/Sourcecode/StudienarbeitX/Library/libmaple/libmaple/dac.o
 .text.dac_enable_channel
                0x00000000       0x44 build//Users/marcus/Dropbox/Studienarbeit/Sourcecode/StudienarbeitX/Library/libmaple/libmaple/dac.o
 .text.dac_init
                0x00000000       0x34 build//Users/marcus/Dropbox/Studienarbeit/Sourcecode/StudienarbeitX/Library/libmaple/libmaple/dac.o
 .text          0x00000000        0x0 build//Users/marcus/Dropbox/Studienarbeit/Sourcecode/StudienarbeitX/Library/libmaple/libmaple/dma.o
 .data          0x00000000        0x0 build//Users/marcus/Dropbox/Studienarbeit/Sourcecode/StudienarbeitX/Library/libmaple/libmaple/dma.o
 .bss           0x00000000        0x0 build//Users/marcus/Dropbox/Studienarbeit/Sourcecode/StudienarbeitX/Library/libmaple/libmaple/dma.o
 .text._dma_addr_type
                0x00000000       0x1c build//Users/marcus/Dropbox/Studienarbeit/Sourcecode/StudienarbeitX/Library/libmaple/libmaple/dma.o
 .text.dma_init
                0x00000000        0x6 build//Users/marcus/Dropbox/Studienarbeit/Sourcecode/StudienarbeitX/Library/libmaple/libmaple/dma.o
 .text          0x00000000        0x0 build//Users/marcus/Dropbox/Studienarbeit/Sourcecode/StudienarbeitX/Library/libmaple/libmaple/exti.o
 .data          0x00000000        0x0 build//Users/marcus/Dropbox/Studienarbeit/Sourcecode/StudienarbeitX/Library/libmaple/libmaple/exti.o
 .bss           0x00000000        0x0 build//Users/marcus/Dropbox/Studienarbeit/Sourcecode/StudienarbeitX/Library/libmaple/libmaple/exti.o
 .text.exti_do_select
                0x00000000       0x1c build//Users/marcus/Dropbox/Studienarbeit/Sourcecode/StudienarbeitX/Library/libmaple/libmaple/exti.o
 .text.bb_peri_set_bit
                0x00000000        0xe build//Users/marcus/Dropbox/Studienarbeit/Sourcecode/StudienarbeitX/Library/libmaple/libmaple/exti.o
 .text.exti_detach_interrupt
                0x00000000       0x3c build//Users/marcus/Dropbox/Studienarbeit/Sourcecode/StudienarbeitX/Library/libmaple/libmaple/exti.o
 .text.exti_attach_interrupt
                0x00000000       0x98 build//Users/marcus/Dropbox/Studienarbeit/Sourcecode/StudienarbeitX/Library/libmaple/libmaple/exti.o
 .rodata.str1.1
                0x00000000       0x67 build//Users/marcus/Dropbox/Studienarbeit/Sourcecode/StudienarbeitX/Library/libmaple/libmaple/exti.o
 .text          0x00000000        0x0 build//Users/marcus/Dropbox/Studienarbeit/Sourcecode/StudienarbeitX/Library/libmaple/libmaple/flash.o
 .data          0x00000000        0x0 build//Users/marcus/Dropbox/Studienarbeit/Sourcecode/StudienarbeitX/Library/libmaple/libmaple/flash.o
 .bss           0x00000000        0x0 build//Users/marcus/Dropbox/Studienarbeit/Sourcecode/StudienarbeitX/Library/libmaple/libmaple/flash.o
 .text          0x00000000        0x0 build//Users/marcus/Dropbox/Studienarbeit/Sourcecode/StudienarbeitX/Library/libmaple/libmaple/gpio.o
 .data          0x00000000        0x0 build//Users/marcus/Dropbox/Studienarbeit/Sourcecode/StudienarbeitX/Library/libmaple/libmaple/gpio.o
 .bss           0x00000000        0x0 build//Users/marcus/Dropbox/Studienarbeit/Sourcecode/StudienarbeitX/Library/libmaple/libmaple/gpio.o
 .text          0x00000000        0x0 build//Users/marcus/Dropbox/Studienarbeit/Sourcecode/StudienarbeitX/Library/libmaple/libmaple/iwdg.o
 .data          0x00000000        0x0 build//Users/marcus/Dropbox/Studienarbeit/Sourcecode/StudienarbeitX/Library/libmaple/libmaple/iwdg.o
 .bss           0x00000000        0x0 build//Users/marcus/Dropbox/Studienarbeit/Sourcecode/StudienarbeitX/Library/libmaple/libmaple/iwdg.o
 .text.iwdg_feed
                0x00000000       0x10 build//Users/marcus/Dropbox/Studienarbeit/Sourcecode/StudienarbeitX/Library/libmaple/libmaple/iwdg.o
 .text.iwdg_init
                0x00000000       0x1c build//Users/marcus/Dropbox/Studienarbeit/Sourcecode/StudienarbeitX/Library/libmaple/libmaple/iwdg.o
 .text          0x00000000        0x0 build//Users/marcus/Dropbox/Studienarbeit/Sourcecode/StudienarbeitX/Library/libmaple/libmaple/nvic.o
 .data          0x00000000        0x0 build//Users/marcus/Dropbox/Studienarbeit/Sourcecode/StudienarbeitX/Library/libmaple/libmaple/nvic.o
 .bss           0x00000000        0x0 build//Users/marcus/Dropbox/Studienarbeit/Sourcecode/StudienarbeitX/Library/libmaple/libmaple/nvic.o
 .text          0x00000000        0x0 build//Users/marcus/Dropbox/Studienarbeit/Sourcecode/StudienarbeitX/Library/libmaple/libmaple/pwr.o
 .data          0x00000000        0x0 build//Users/marcus/Dropbox/Studienarbeit/Sourcecode/StudienarbeitX/Library/libmaple/libmaple/pwr.o
 .bss           0x00000000        0x0 build//Users/marcus/Dropbox/Studienarbeit/Sourcecode/StudienarbeitX/Library/libmaple/libmaple/pwr.o
 .text.pwr_init
                0x00000000       0x12 build//Users/marcus/Dropbox/Studienarbeit/Sourcecode/StudienarbeitX/Library/libmaple/libmaple/pwr.o
 .text          0x00000000        0x0 build//Users/marcus/Dropbox/Studienarbeit/Sourcecode/StudienarbeitX/Library/libmaple/libmaple/rcc.o
 .data          0x00000000        0x0 build//Users/marcus/Dropbox/Studienarbeit/Sourcecode/StudienarbeitX/Library/libmaple/libmaple/rcc.o
 .bss           0x00000000        0x0 build//Users/marcus/Dropbox/Studienarbeit/Sourcecode/StudienarbeitX/Library/libmaple/libmaple/rcc.o
 .text          0x00000000        0x0 build//Users/marcus/Dropbox/Studienarbeit/Sourcecode/StudienarbeitX/Library/libmaple/libmaple/spi.o
 .data          0x00000000        0x0 build//Users/marcus/Dropbox/Studienarbeit/Sourcecode/StudienarbeitX/Library/libmaple/libmaple/spi.o
 .bss           0x00000000        0x0 build//Users/marcus/Dropbox/Studienarbeit/Sourcecode/StudienarbeitX/Library/libmaple/libmaple/spi.o
 .text.spi_tx_dma_enable
                0x00000000        0xc build//Users/marcus/Dropbox/Studienarbeit/Sourcecode/StudienarbeitX/Library/libmaple/libmaple/spi.o
 .text.spi_tx_dma_disable
                0x00000000        0xc build//Users/marcus/Dropbox/Studienarbeit/Sourcecode/StudienarbeitX/Library/libmaple/libmaple/spi.o
 .text.spi_rx_dma_enable
                0x00000000        0xc build//Users/marcus/Dropbox/Studienarbeit/Sourcecode/StudienarbeitX/Library/libmaple/libmaple/spi.o
 .text.spi_rx_dma_disable
                0x00000000        0xc build//Users/marcus/Dropbox/Studienarbeit/Sourcecode/StudienarbeitX/Library/libmaple/libmaple/spi.o
 .text          0x00000000        0x0 build//Users/marcus/Dropbox/Studienarbeit/Sourcecode/StudienarbeitX/Library/libmaple/libmaple/systick.o
 .data          0x00000000        0x0 build//Users/marcus/Dropbox/Studienarbeit/Sourcecode/StudienarbeitX/Library/libmaple/libmaple/systick.o
 .bss           0x00000000        0x0 build//Users/marcus/Dropbox/Studienarbeit/Sourcecode/StudienarbeitX/Library/libmaple/libmaple/systick.o
 .text.systick_disable
                0x00000000        0xc build//Users/marcus/Dropbox/Studienarbeit/Sourcecode/StudienarbeitX/Library/libmaple/libmaple/systick.o
 .text.systick_attach_callback
                0x00000000        0xc build//Users/marcus/Dropbox/Studienarbeit/Sourcecode/StudienarbeitX/Library/libmaple/libmaple/systick.o
 .text          0x00000000        0x0 build//Users/marcus/Dropbox/Studienarbeit/Sourcecode/StudienarbeitX/Library/libmaple/libmaple/timer.o
 .data          0x00000000        0x0 build//Users/marcus/Dropbox/Studienarbeit/Sourcecode/StudienarbeitX/Library/libmaple/libmaple/timer.o
 .bss           0x00000000        0x0 build//Users/marcus/Dropbox/Studienarbeit/Sourcecode/StudienarbeitX/Library/libmaple/libmaple/timer.o
 .text.nvic_irq_enable
                0x00000000       0x1c build//Users/marcus/Dropbox/Studienarbeit/Sourcecode/StudienarbeitX/Library/libmaple/libmaple/timer.o
 .text.timer_attach_interrupt
                0x00000000       0xcc build//Users/marcus/Dropbox/Studienarbeit/Sourcecode/StudienarbeitX/Library/libmaple/libmaple/timer.o
 .text          0x00000000        0x0 build//Users/marcus/Dropbox/Studienarbeit/Sourcecode/StudienarbeitX/Library/libmaple/libmaple/usart.o
 .data          0x00000000        0x0 build//Users/marcus/Dropbox/Studienarbeit/Sourcecode/StudienarbeitX/Library/libmaple/libmaple/usart.o
 .bss           0x00000000        0x0 build//Users/marcus/Dropbox/Studienarbeit/Sourcecode/StudienarbeitX/Library/libmaple/libmaple/usart.o
 .text.usart_enable
                0x00000000       0x10 build//Users/marcus/Dropbox/Studienarbeit/Sourcecode/StudienarbeitX/Library/libmaple/libmaple/usart.o
 .text.usart_rx
                0x00000000       0x5a build//Users/marcus/Dropbox/Studienarbeit/Sourcecode/StudienarbeitX/Library/libmaple/libmaple/usart.o
 .text          0x00000000        0x0 build//Users/marcus/Dropbox/Studienarbeit/Sourcecode/StudienarbeitX/Library/libmaple/libmaple/usart_private.o
 .data          0x00000000        0x0 build//Users/marcus/Dropbox/Studienarbeit/Sourcecode/StudienarbeitX/Library/libmaple/libmaple/usart_private.o
 .bss           0x00000000        0x0 build//Users/marcus/Dropbox/Studienarbeit/Sourcecode/StudienarbeitX/Library/libmaple/libmaple/usart_private.o
 .text          0x00000000        0x0 build//Users/marcus/Dropbox/Studienarbeit/Sourcecode/StudienarbeitX/Library/libmaple/libmaple/util.o
 .data          0x00000000        0x0 build//Users/marcus/Dropbox/Studienarbeit/Sourcecode/StudienarbeitX/Library/libmaple/libmaple/util.o
 .bss           0x00000000        0x0 build//Users/marcus/Dropbox/Studienarbeit/Sourcecode/StudienarbeitX/Library/libmaple/libmaple/util.o
 .text.abort    0x00000000       0x1c build//Users/marcus/Dropbox/Studienarbeit/Sourcecode/StudienarbeitX/Library/libmaple/libmaple/util.o
 .text.__assert_func
                0x00000000        0x6 build//Users/marcus/Dropbox/Studienarbeit/Sourcecode/StudienarbeitX/Library/libmaple/libmaple/util.o
 .text          0x00000000        0x0 build//Users/marcus/Dropbox/Studienarbeit/Sourcecode/StudienarbeitX/Library/libmaple/libmaple/i2c.o
 .data          0x00000000        0x0 build//Users/marcus/Dropbox/Studienarbeit/Sourcecode/StudienarbeitX/Library/libmaple/libmaple/i2c.o
 .bss           0x00000000        0x0 build//Users/marcus/Dropbox/Studienarbeit/Sourcecode/StudienarbeitX/Library/libmaple/libmaple/i2c.o
 .text.nvic_irq_enable
                0x00000000       0x1c build//Users/marcus/Dropbox/Studienarbeit/Sourcecode/StudienarbeitX/Library/libmaple/libmaple/i2c.o
 .text.scl_port
                0x00000000        0xa build//Users/marcus/Dropbox/Studienarbeit/Sourcecode/StudienarbeitX/Library/libmaple/libmaple/i2c.o
 .text.sda_port
                0x00000000        0xa build//Users/marcus/Dropbox/Studienarbeit/Sourcecode/StudienarbeitX/Library/libmaple/libmaple/i2c.o
 .text.gpio_write_bit
                0x00000000       0x18 build//Users/marcus/Dropbox/Studienarbeit/Sourcecode/StudienarbeitX/Library/libmaple/libmaple/i2c.o
 .text.gpio_read_bit
                0x00000000        0xc build//Users/marcus/Dropbox/Studienarbeit/Sourcecode/StudienarbeitX/Library/libmaple/libmaple/i2c.o
 .text.i2c_init
                0x00000000       0x18 build//Users/marcus/Dropbox/Studienarbeit/Sourcecode/StudienarbeitX/Library/libmaple/libmaple/i2c.o
 .text.i2c_master_xfer
                0x00000000       0x78 build//Users/marcus/Dropbox/Studienarbeit/Sourcecode/StudienarbeitX/Library/libmaple/libmaple/i2c.o
 .text.T.8      0x00000000        0xa build//Users/marcus/Dropbox/Studienarbeit/Sourcecode/StudienarbeitX/Library/libmaple/libmaple/i2c.o
 .text.i2c_bus_reset
                0x00000000       0x9a build//Users/marcus/Dropbox/Studienarbeit/Sourcecode/StudienarbeitX/Library/libmaple/libmaple/i2c.o
 .text.i2c_master_enable
                0x00000000       0xcc build//Users/marcus/Dropbox/Studienarbeit/Sourcecode/StudienarbeitX/Library/libmaple/libmaple/i2c.o
 .data          0x00000000        0x0 build//Users/marcus/Dropbox/Studienarbeit/Sourcecode/StudienarbeitX/Library/libmaple/libmaple/exc.o
 .bss           0x00000000        0x0 build//Users/marcus/Dropbox/Studienarbeit/Sourcecode/StudienarbeitX/Library/libmaple/libmaple/exc.o
 .text          0x00000000        0x0 build//Users/marcus/Dropbox/Studienarbeit/Sourcecode/StudienarbeitX/Library/libmaple/libmaple/usb/stm32f1/usb.o
 .data          0x00000000        0x0 build//Users/marcus/Dropbox/Studienarbeit/Sourcecode/StudienarbeitX/Library/libmaple/libmaple/usb/stm32f1/usb.o
 .bss           0x00000000        0x0 build//Users/marcus/Dropbox/Studienarbeit/Sourcecode/StudienarbeitX/Library/libmaple/libmaple/usb/stm32f1/usb.o
 .text          0x00000000        0x0 build//Users/marcus/Dropbox/Studienarbeit/Sourcecode/StudienarbeitX/Library/libmaple/libmaple/usb/stm32f1/usb_reg_map.o
 .data          0x00000000        0x0 build//Users/marcus/Dropbox/Studienarbeit/Sourcecode/StudienarbeitX/Library/libmaple/libmaple/usb/stm32f1/usb_reg_map.o
 .bss           0x00000000        0x0 build//Users/marcus/Dropbox/Studienarbeit/Sourcecode/StudienarbeitX/Library/libmaple/libmaple/usb/stm32f1/usb_reg_map.o
 .text          0x00000000        0x0 build//Users/marcus/Dropbox/Studienarbeit/Sourcecode/StudienarbeitX/Library/libmaple/libmaple/usb/stm32f1/usb_cdcacm.o
 .data          0x00000000        0x0 build//Users/marcus/Dropbox/Studienarbeit/Sourcecode/StudienarbeitX/Library/libmaple/libmaple/usb/stm32f1/usb_cdcacm.o
 .bss           0x00000000        0x0 build//Users/marcus/Dropbox/Studienarbeit/Sourcecode/StudienarbeitX/Library/libmaple/libmaple/usb/stm32f1/usb_cdcacm.o
 .text.usb_cdcacm_get_pending
                0x00000000        0xc build//Users/marcus/Dropbox/Studienarbeit/Sourcecode/StudienarbeitX/Library/libmaple/libmaple/usb/stm32f1/usb_cdcacm.o
 .text.usb_cdcacm_get_dtr
                0x00000000       0x10 build//Users/marcus/Dropbox/Studienarbeit/Sourcecode/StudienarbeitX/Library/libmaple/libmaple/usb/stm32f1/usb_cdcacm.o
 .text.usb_cdcacm_get_rts
                0x00000000       0x10 build//Users/marcus/Dropbox/Studienarbeit/Sourcecode/StudienarbeitX/Library/libmaple/libmaple/usb/stm32f1/usb_cdcacm.o
 .text.usb_cdcacm_rx
                0x00000000       0x60 build//Users/marcus/Dropbox/Studienarbeit/Sourcecode/StudienarbeitX/Library/libmaple/libmaple/usb/stm32f1/usb_cdcacm.o
 .text.usb_cdcacm_disable
                0x00000000       0x14 build//Users/marcus/Dropbox/Studienarbeit/Sourcecode/StudienarbeitX/Library/libmaple/libmaple/usb/stm32f1/usb_cdcacm.o
 .text.usb_cdcacm_putc
                0x00000000       0x16 build//Users/marcus/Dropbox/Studienarbeit/Sourcecode/StudienarbeitX/Library/libmaple/libmaple/usb/stm32f1/usb_cdcacm.o
 .bss.offset.2487
                0x00000000        0x4 build//Users/marcus/Dropbox/Studienarbeit/Sourcecode/StudienarbeitX/Library/libmaple/libmaple/usb/stm32f1/usb_cdcacm.o
 .text          0x00000000        0x0 build//Users/marcus/Dropbox/Studienarbeit/Sourcecode/StudienarbeitX/Library/libmaple/libmaple/usb/usb_lib/usb_core.o
 .data          0x00000000        0x0 build//Users/marcus/Dropbox/Studienarbeit/Sourcecode/StudienarbeitX/Library/libmaple/libmaple/usb/usb_lib/usb_core.o
 .bss           0x00000000        0x0 build//Users/marcus/Dropbox/Studienarbeit/Sourcecode/StudienarbeitX/Library/libmaple/libmaple/usb/usb_lib/usb_core.o
 .text          0x00000000        0x0 build//Users/marcus/Dropbox/Studienarbeit/Sourcecode/StudienarbeitX/Library/libmaple/libmaple/usb/usb_lib/usb_init.o
 .data          0x00000000        0x0 build//Users/marcus/Dropbox/Studienarbeit/Sourcecode/StudienarbeitX/Library/libmaple/libmaple/usb/usb_lib/usb_init.o
 .bss           0x00000000        0x0 build//Users/marcus/Dropbox/Studienarbeit/Sourcecode/StudienarbeitX/Library/libmaple/libmaple/usb/usb_lib/usb_init.o
 .text.USB_Init
                0x00000000       0x38 build//Users/marcus/Dropbox/Studienarbeit/Sourcecode/StudienarbeitX/Library/libmaple/libmaple/usb/usb_lib/usb_init.o
 .text          0x00000000        0x0 build//Users/marcus/Dropbox/Studienarbeit/Sourcecode/StudienarbeitX/Library/libmaple/libmaple/usb/usb_lib/usb_mem.o
 .data          0x00000000        0x0 build//Users/marcus/Dropbox/Studienarbeit/Sourcecode/StudienarbeitX/Library/libmaple/libmaple/usb/usb_lib/usb_mem.o
 .bss           0x00000000        0x0 build//Users/marcus/Dropbox/Studienarbeit/Sourcecode/StudienarbeitX/Library/libmaple/libmaple/usb/usb_lib/usb_mem.o
 .text          0x00000000        0x0 build//Users/marcus/Dropbox/Studienarbeit/Sourcecode/StudienarbeitX/Library/libmaple/libmaple/usb/usb_lib/usb_regs.o
 .data          0x00000000        0x0 build//Users/marcus/Dropbox/Studienarbeit/Sourcecode/StudienarbeitX/Library/libmaple/libmaple/usb/usb_lib/usb_regs.o
 .bss           0x00000000        0x0 build//Users/marcus/Dropbox/Studienarbeit/Sourcecode/StudienarbeitX/Library/libmaple/libmaple/usb/usb_lib/usb_regs.o
 .text.SetCNTR  0x00000000        0xc build//Users/marcus/Dropbox/Studienarbeit/Sourcecode/StudienarbeitX/Library/libmaple/libmaple/usb/usb_lib/usb_regs.o
 .text.GetCNTR  0x00000000        0xc build//Users/marcus/Dropbox/Studienarbeit/Sourcecode/StudienarbeitX/Library/libmaple/libmaple/usb/usb_lib/usb_regs.o
 .text.SetISTR  0x00000000        0xc build//Users/marcus/Dropbox/Studienarbeit/Sourcecode/StudienarbeitX/Library/libmaple/libmaple/usb/usb_lib/usb_regs.o
 .text.GetISTR  0x00000000        0xc build//Users/marcus/Dropbox/Studienarbeit/Sourcecode/StudienarbeitX/Library/libmaple/libmaple/usb/usb_lib/usb_regs.o
 .text.GetFNR   0x00000000        0xc build//Users/marcus/Dropbox/Studienarbeit/Sourcecode/StudienarbeitX/Library/libmaple/libmaple/usb/usb_lib/usb_regs.o
 .text.SetDADDR
                0x00000000        0xc build//Users/marcus/Dropbox/Studienarbeit/Sourcecode/StudienarbeitX/Library/libmaple/libmaple/usb/usb_lib/usb_regs.o
 .text.GetDADDR
                0x00000000        0xc build//Users/marcus/Dropbox/Studienarbeit/Sourcecode/StudienarbeitX/Library/libmaple/libmaple/usb/usb_lib/usb_regs.o
 .text.SetBTABLE
                0x00000000       0x14 build//Users/marcus/Dropbox/Studienarbeit/Sourcecode/StudienarbeitX/Library/libmaple/libmaple/usb/usb_lib/usb_regs.o
 .text.GetBTABLE
                0x00000000        0xc build//Users/marcus/Dropbox/Studienarbeit/Sourcecode/StudienarbeitX/Library/libmaple/libmaple/usb/usb_lib/usb_regs.o
 .text.SetENDPOINT
                0x00000000        0xe build//Users/marcus/Dropbox/Studienarbeit/Sourcecode/StudienarbeitX/Library/libmaple/libmaple/usb/usb_lib/usb_regs.o
 .text.GetENDPOINT
                0x00000000       0x10 build//Users/marcus/Dropbox/Studienarbeit/Sourcecode/StudienarbeitX/Library/libmaple/libmaple/usb/usb_lib/usb_regs.o
 .text.SetEPType
                0x00000000       0x1a build//Users/marcus/Dropbox/Studienarbeit/Sourcecode/StudienarbeitX/Library/libmaple/libmaple/usb/usb_lib/usb_regs.o
 .text.GetEPType
                0x00000000       0x12 build//Users/marcus/Dropbox/Studienarbeit/Sourcecode/StudienarbeitX/Library/libmaple/libmaple/usb/usb_lib/usb_regs.o
 .text.SetEPRxStatus
                0x00000000       0x2c build//Users/marcus/Dropbox/Studienarbeit/Sourcecode/StudienarbeitX/Library/libmaple/libmaple/usb/usb_lib/usb_regs.o
 .text.SetDouBleBuffEPStall
                0x00000000       0x36 build//Users/marcus/Dropbox/Studienarbeit/Sourcecode/StudienarbeitX/Library/libmaple/libmaple/usb/usb_lib/usb_regs.o
 .text.GetEPTxStatus
                0x00000000       0x12 build//Users/marcus/Dropbox/Studienarbeit/Sourcecode/StudienarbeitX/Library/libmaple/libmaple/usb/usb_lib/usb_regs.o
 .text.GetEPRxStatus
                0x00000000       0x12 build//Users/marcus/Dropbox/Studienarbeit/Sourcecode/StudienarbeitX/Library/libmaple/libmaple/usb/usb_lib/usb_regs.o
 .text.SetEPTxValid
                0x00000000       0x1c build//Users/marcus/Dropbox/Studienarbeit/Sourcecode/StudienarbeitX/Library/libmaple/libmaple/usb/usb_lib/usb_regs.o
 .text.SetEPRxValid
                0x00000000       0x1c build//Users/marcus/Dropbox/Studienarbeit/Sourcecode/StudienarbeitX/Library/libmaple/libmaple/usb/usb_lib/usb_regs.o
 .text.SetEP_KIND
                0x00000000       0x1c build//Users/marcus/Dropbox/Studienarbeit/Sourcecode/StudienarbeitX/Library/libmaple/libmaple/usb/usb_lib/usb_regs.o
 .text.ClearEP_KIND
                0x00000000       0x18 build//Users/marcus/Dropbox/Studienarbeit/Sourcecode/StudienarbeitX/Library/libmaple/libmaple/usb/usb_lib/usb_regs.o
 .text.Clear_Status_Out
                0x00000000       0x18 build//Users/marcus/Dropbox/Studienarbeit/Sourcecode/StudienarbeitX/Library/libmaple/libmaple/usb/usb_lib/usb_regs.o
 .text.Set_Status_Out
                0x00000000       0x1c build//Users/marcus/Dropbox/Studienarbeit/Sourcecode/StudienarbeitX/Library/libmaple/libmaple/usb/usb_lib/usb_regs.o
 .text.SetEPDoubleBuff
                0x00000000       0x1c build//Users/marcus/Dropbox/Studienarbeit/Sourcecode/StudienarbeitX/Library/libmaple/libmaple/usb/usb_lib/usb_regs.o
 .text.ClearEPDoubleBuff
                0x00000000       0x18 build//Users/marcus/Dropbox/Studienarbeit/Sourcecode/StudienarbeitX/Library/libmaple/libmaple/usb/usb_lib/usb_regs.o
 .text.GetTxStallStatus
                0x00000000       0x1a build//Users/marcus/Dropbox/Studienarbeit/Sourcecode/StudienarbeitX/Library/libmaple/libmaple/usb/usb_lib/usb_regs.o
 .text.GetRxStallStatus
                0x00000000       0x1c build//Users/marcus/Dropbox/Studienarbeit/Sourcecode/StudienarbeitX/Library/libmaple/libmaple/usb/usb_lib/usb_regs.o
 .text.ClearEP_CTR_RX
                0x00000000       0x18 build//Users/marcus/Dropbox/Studienarbeit/Sourcecode/StudienarbeitX/Library/libmaple/libmaple/usb/usb_lib/usb_regs.o
 .text.ClearEP_CTR_TX
                0x00000000       0x18 build//Users/marcus/Dropbox/Studienarbeit/Sourcecode/StudienarbeitX/Library/libmaple/libmaple/usb/usb_lib/usb_regs.o
 .text.ToggleDTOG_RX
                0x00000000       0x1c build//Users/marcus/Dropbox/Studienarbeit/Sourcecode/StudienarbeitX/Library/libmaple/libmaple/usb/usb_lib/usb_regs.o
 .text.ToggleDTOG_TX
                0x00000000       0x1c build//Users/marcus/Dropbox/Studienarbeit/Sourcecode/StudienarbeitX/Library/libmaple/libmaple/usb/usb_lib/usb_regs.o
 .text.SetEPAddress
                0x00000000       0x1a build//Users/marcus/Dropbox/Studienarbeit/Sourcecode/StudienarbeitX/Library/libmaple/libmaple/usb/usb_lib/usb_regs.o
 .text.GetEPAddress
                0x00000000       0x12 build//Users/marcus/Dropbox/Studienarbeit/Sourcecode/StudienarbeitX/Library/libmaple/libmaple/usb/usb_lib/usb_regs.o
 .text.SetEPTxAddr
                0x00000000       0x24 build//Users/marcus/Dropbox/Studienarbeit/Sourcecode/StudienarbeitX/Library/libmaple/libmaple/usb/usb_lib/usb_regs.o
 .text.SetEPRxAddr
                0x00000000       0x24 build//Users/marcus/Dropbox/Studienarbeit/Sourcecode/StudienarbeitX/Library/libmaple/libmaple/usb/usb_lib/usb_regs.o
 .text.SetEPCountRxReg
                0x00000000       0x28 build//Users/marcus/Dropbox/Studienarbeit/Sourcecode/StudienarbeitX/Library/libmaple/libmaple/usb/usb_lib/usb_regs.o
 .text.GetEPTxCount
                0x00000000       0x20 build//Users/marcus/Dropbox/Studienarbeit/Sourcecode/StudienarbeitX/Library/libmaple/libmaple/usb/usb_lib/usb_regs.o
 .text.GetEPRxCount
                0x00000000       0x20 build//Users/marcus/Dropbox/Studienarbeit/Sourcecode/StudienarbeitX/Library/libmaple/libmaple/usb/usb_lib/usb_regs.o
 .text.SetEPDblBuffAddr
                0x00000000       0x40 build//Users/marcus/Dropbox/Studienarbeit/Sourcecode/StudienarbeitX/Library/libmaple/libmaple/usb/usb_lib/usb_regs.o
 .text.SetEPDblBuf0Addr
                0x00000000       0x24 build//Users/marcus/Dropbox/Studienarbeit/Sourcecode/StudienarbeitX/Library/libmaple/libmaple/usb/usb_lib/usb_regs.o
 .text.SetEPDblBuf1Addr
                0x00000000       0x24 build//Users/marcus/Dropbox/Studienarbeit/Sourcecode/StudienarbeitX/Library/libmaple/libmaple/usb/usb_lib/usb_regs.o
 .text.GetEPDblBuf0Addr
                0x00000000       0x1c build//Users/marcus/Dropbox/Studienarbeit/Sourcecode/StudienarbeitX/Library/libmaple/libmaple/usb/usb_lib/usb_regs.o
 .text.GetEPDblBuf1Addr
                0x00000000       0x1c build//Users/marcus/Dropbox/Studienarbeit/Sourcecode/StudienarbeitX/Library/libmaple/libmaple/usb/usb_lib/usb_regs.o
 .text.SetEPDblBuffCount
                0x00000000       0xa8 build//Users/marcus/Dropbox/Studienarbeit/Sourcecode/StudienarbeitX/Library/libmaple/libmaple/usb/usb_lib/usb_regs.o
 .text.SetEPDblBuf0Count
                0x00000000       0x5c build//Users/marcus/Dropbox/Studienarbeit/Sourcecode/StudienarbeitX/Library/libmaple/libmaple/usb/usb_lib/usb_regs.o
 .text.SetEPDblBuf1Count
                0x00000000       0x5c build//Users/marcus/Dropbox/Studienarbeit/Sourcecode/StudienarbeitX/Library/libmaple/libmaple/usb/usb_lib/usb_regs.o
 .text.GetEPDblBuf0Count
                0x00000000       0x20 build//Users/marcus/Dropbox/Studienarbeit/Sourcecode/StudienarbeitX/Library/libmaple/libmaple/usb/usb_lib/usb_regs.o
 .text.GetEPDblBuf1Count
                0x00000000       0x20 build//Users/marcus/Dropbox/Studienarbeit/Sourcecode/StudienarbeitX/Library/libmaple/libmaple/usb/usb_lib/usb_regs.o
 .text.GetEPDblBufDir
                0x00000000       0x44 build//Users/marcus/Dropbox/Studienarbeit/Sourcecode/StudienarbeitX/Library/libmaple/libmaple/usb/usb_lib/usb_regs.o
 .text.FreeUserBuffer
                0x00000000       0x40 build//Users/marcus/Dropbox/Studienarbeit/Sourcecode/StudienarbeitX/Library/libmaple/libmaple/usb/usb_lib/usb_regs.o
 .text.ToWord   0x00000000        0x6 build//Users/marcus/Dropbox/Studienarbeit/Sourcecode/StudienarbeitX/Library/libmaple/libmaple/usb/usb_lib/usb_regs.o
 .data          0x00000000        0x0 build//Users/marcus/Dropbox/Studienarbeit/Sourcecode/StudienarbeitX/Library/libmaple/libmaple/stm32f1/performance/isrs.o
 .bss           0x00000000        0x0 build//Users/marcus/Dropbox/Studienarbeit/Sourcecode/StudienarbeitX/Library/libmaple/libmaple/stm32f1/performance/isrs.o
 .text          0x00000000        0x0 build//Users/marcus/Dropbox/Studienarbeit/Sourcecode/StudienarbeitX/Library/libmaple/libmaple/stm32f1/performance/vector_table.o
 .data          0x00000000        0x0 build//Users/marcus/Dropbox/Studienarbeit/Sourcecode/StudienarbeitX/Library/libmaple/libmaple/stm32f1/performance/vector_table.o
 .bss           0x00000000        0x0 build//Users/marcus/Dropbox/Studienarbeit/Sourcecode/StudienarbeitX/Library/libmaple/libmaple/stm32f1/performance/vector_table.o
 .text          0x00000000        0x0 build//Users/marcus/Dropbox/Studienarbeit/Sourcecode/StudienarbeitX/Library/libmaple/libmaple/stm32f1/adc.o
 .data          0x00000000        0x0 build//Users/marcus/Dropbox/Studienarbeit/Sourcecode/StudienarbeitX/Library/libmaple/libmaple/stm32f1/adc.o
 .bss           0x00000000        0x0 build//Users/marcus/Dropbox/Studienarbeit/Sourcecode/StudienarbeitX/Library/libmaple/libmaple/stm32f1/adc.o
 .text.adc_config_gpio
                0x00000000        0xa build//Users/marcus/Dropbox/Studienarbeit/Sourcecode/StudienarbeitX/Library/libmaple/libmaple/stm32f1/adc.o
 .text          0x00000000        0x0 build//Users/marcus/Dropbox/Studienarbeit/Sourcecode/StudienarbeitX/Library/libmaple/libmaple/stm32f1/bkp.o
 .data          0x00000000        0x0 build//Users/marcus/Dropbox/Studienarbeit/Sourcecode/StudienarbeitX/Library/libmaple/libmaple/stm32f1/bkp.o
 .bss           0x00000000        0x0 build//Users/marcus/Dropbox/Studienarbeit/Sourcecode/StudienarbeitX/Library/libmaple/libmaple/stm32f1/bkp.o
 .text.data_register
                0x00000000       0x18 build//Users/marcus/Dropbox/Studienarbeit/Sourcecode/StudienarbeitX/Library/libmaple/libmaple/stm32f1/bkp.o
 .text.bkp_write
                0x00000000       0x24 build//Users/marcus/Dropbox/Studienarbeit/Sourcecode/StudienarbeitX/Library/libmaple/libmaple/stm32f1/bkp.o
 .text.bkp_read
                0x00000000       0x28 build//Users/marcus/Dropbox/Studienarbeit/Sourcecode/StudienarbeitX/Library/libmaple/libmaple/stm32f1/bkp.o
 .text.bkp_init
                0x00000000       0x18 build//Users/marcus/Dropbox/Studienarbeit/Sourcecode/StudienarbeitX/Library/libmaple/libmaple/stm32f1/bkp.o
 .text.T.4      0x00000000        0x8 build//Users/marcus/Dropbox/Studienarbeit/Sourcecode/StudienarbeitX/Library/libmaple/libmaple/stm32f1/bkp.o
 .text.bkp_disable_writes
                0x00000000        0xc build//Users/marcus/Dropbox/Studienarbeit/Sourcecode/StudienarbeitX/Library/libmaple/libmaple/stm32f1/bkp.o
 .text.bkp_enable_writes
                0x00000000        0xc build//Users/marcus/Dropbox/Studienarbeit/Sourcecode/StudienarbeitX/Library/libmaple/libmaple/stm32f1/bkp.o
 .data.bkp      0x00000000        0x4 build//Users/marcus/Dropbox/Studienarbeit/Sourcecode/StudienarbeitX/Library/libmaple/libmaple/stm32f1/bkp.o
 .data.BKP      0x00000000        0x4 build//Users/marcus/Dropbox/Studienarbeit/Sourcecode/StudienarbeitX/Library/libmaple/libmaple/stm32f1/bkp.o
 .rodata.str1.1
                0x00000000       0x68 build//Users/marcus/Dropbox/Studienarbeit/Sourcecode/StudienarbeitX/Library/libmaple/libmaple/stm32f1/bkp.o
 .text          0x00000000        0x0 build//Users/marcus/Dropbox/Studienarbeit/Sourcecode/StudienarbeitX/Library/libmaple/libmaple/stm32f1/dma.o
 .data          0x00000000        0x0 build//Users/marcus/Dropbox/Studienarbeit/Sourcecode/StudienarbeitX/Library/libmaple/libmaple/stm32f1/dma.o
 .bss           0x00000000        0x0 build//Users/marcus/Dropbox/Studienarbeit/Sourcecode/StudienarbeitX/Library/libmaple/libmaple/stm32f1/dma.o
 .text.dma_tube_regs
                0x00000000        0xe build//Users/marcus/Dropbox/Studienarbeit/Sourcecode/StudienarbeitX/Library/libmaple/libmaple/stm32f1/dma.o
 .text.dma_is_enabled
                0x00000000        0xe build//Users/marcus/Dropbox/Studienarbeit/Sourcecode/StudienarbeitX/Library/libmaple/libmaple/stm32f1/dma.o
 .text.set_ccr  0x00000000       0x2e build//Users/marcus/Dropbox/Studienarbeit/Sourcecode/StudienarbeitX/Library/libmaple/libmaple/stm32f1/dma.o
 .text.cfg_ccr_flags
                0x00000000        0x6 build//Users/marcus/Dropbox/Studienarbeit/Sourcecode/StudienarbeitX/Library/libmaple/libmaple/stm32f1/dma.o
 .text.dma_attach_interrupt
                0x00000000       0x28 build//Users/marcus/Dropbox/Studienarbeit/Sourcecode/StudienarbeitX/Library/libmaple/libmaple/stm32f1/dma.o
 .text.dma_detach_interrupt
                0x00000000       0x1a build//Users/marcus/Dropbox/Studienarbeit/Sourcecode/StudienarbeitX/Library/libmaple/libmaple/stm32f1/dma.o
 .text.dma_set_per_addr
                0x00000000       0x30 build//Users/marcus/Dropbox/Studienarbeit/Sourcecode/StudienarbeitX/Library/libmaple/libmaple/stm32f1/dma.o
 .text.dma_set_mem_addr
                0x00000000       0x30 build//Users/marcus/Dropbox/Studienarbeit/Sourcecode/StudienarbeitX/Library/libmaple/libmaple/stm32f1/dma.o
 .text.dma_set_num_transfers
                0x00000000       0x2c build//Users/marcus/Dropbox/Studienarbeit/Sourcecode/StudienarbeitX/Library/libmaple/libmaple/stm32f1/dma.o
 .text.dma_set_priority
                0x00000000       0x38 build//Users/marcus/Dropbox/Studienarbeit/Sourcecode/StudienarbeitX/Library/libmaple/libmaple/stm32f1/dma.o
 .text.cfg_mem_ok
                0x00000000       0x10 build//Users/marcus/Dropbox/Studienarbeit/Sourcecode/StudienarbeitX/Library/libmaple/libmaple/stm32f1/dma.o
 .text.T.32     0x00000000        0xa build//Users/marcus/Dropbox/Studienarbeit/Sourcecode/StudienarbeitX/Library/libmaple/libmaple/stm32f1/dma.o
 .text.dma_disable
                0x00000000       0x10 build//Users/marcus/Dropbox/Studienarbeit/Sourcecode/StudienarbeitX/Library/libmaple/libmaple/stm32f1/dma.o
 .text.dma_setup_transfer
                0x00000000       0x38 build//Users/marcus/Dropbox/Studienarbeit/Sourcecode/StudienarbeitX/Library/libmaple/libmaple/stm32f1/dma.o
 .text.dma_get_irq_cause
                0x00000000       0x74 build//Users/marcus/Dropbox/Studienarbeit/Sourcecode/StudienarbeitX/Library/libmaple/libmaple/stm32f1/dma.o
 .text.dma_tube_cfg
                0x00000000      0x13c build//Users/marcus/Dropbox/Studienarbeit/Sourcecode/StudienarbeitX/Library/libmaple/libmaple/stm32f1/dma.o
 .text.dma_enable
                0x00000000       0x10 build//Users/marcus/Dropbox/Studienarbeit/Sourcecode/StudienarbeitX/Library/libmaple/libmaple/stm32f1/dma.o
 .rodata.str1.1
                0x00000000       0xe2 build//Users/marcus/Dropbox/Studienarbeit/Sourcecode/StudienarbeitX/Library/libmaple/libmaple/stm32f1/dma.o
 .text          0x00000000        0x0 build//Users/marcus/Dropbox/Studienarbeit/Sourcecode/StudienarbeitX/Library/libmaple/libmaple/stm32f1/exti.o
 .data          0x00000000        0x0 build//Users/marcus/Dropbox/Studienarbeit/Sourcecode/StudienarbeitX/Library/libmaple/libmaple/stm32f1/exti.o
 .bss           0x00000000        0x0 build//Users/marcus/Dropbox/Studienarbeit/Sourcecode/StudienarbeitX/Library/libmaple/libmaple/stm32f1/exti.o
 .text.exti_select
                0x00000000       0x18 build//Users/marcus/Dropbox/Studienarbeit/Sourcecode/StudienarbeitX/Library/libmaple/libmaple/stm32f1/exti.o
 .text          0x00000000        0x0 build//Users/marcus/Dropbox/Studienarbeit/Sourcecode/StudienarbeitX/Library/libmaple/libmaple/stm32f1/fsmc.o
 .data          0x00000000        0x0 build//Users/marcus/Dropbox/Studienarbeit/Sourcecode/StudienarbeitX/Library/libmaple/libmaple/stm32f1/fsmc.o
 .bss           0x00000000        0x0 build//Users/marcus/Dropbox/Studienarbeit/Sourcecode/StudienarbeitX/Library/libmaple/libmaple/stm32f1/fsmc.o
 .text          0x00000000        0x0 build//Users/marcus/Dropbox/Studienarbeit/Sourcecode/StudienarbeitX/Library/libmaple/libmaple/stm32f1/gpio.o
 .data          0x00000000        0x0 build//Users/marcus/Dropbox/Studienarbeit/Sourcecode/StudienarbeitX/Library/libmaple/libmaple/stm32f1/gpio.o
 .bss           0x00000000        0x0 build//Users/marcus/Dropbox/Studienarbeit/Sourcecode/StudienarbeitX/Library/libmaple/libmaple/stm32f1/gpio.o
 .text.afio_remap
                0x00000000       0x20 build//Users/marcus/Dropbox/Studienarbeit/Sourcecode/StudienarbeitX/Library/libmaple/libmaple/stm32f1/gpio.o
 .text          0x00000000        0x0 build//Users/marcus/Dropbox/Studienarbeit/Sourcecode/StudienarbeitX/Library/libmaple/libmaple/stm32f1/i2c.o
 .data          0x00000000        0x0 build//Users/marcus/Dropbox/Studienarbeit/Sourcecode/StudienarbeitX/Library/libmaple/libmaple/stm32f1/i2c.o
 .bss           0x00000000        0x0 build//Users/marcus/Dropbox/Studienarbeit/Sourcecode/StudienarbeitX/Library/libmaple/libmaple/stm32f1/i2c.o
 .text.scl_port
                0x00000000        0xa build//Users/marcus/Dropbox/Studienarbeit/Sourcecode/StudienarbeitX/Library/libmaple/libmaple/stm32f1/i2c.o
 .text.sda_port
                0x00000000        0xa build//Users/marcus/Dropbox/Studienarbeit/Sourcecode/StudienarbeitX/Library/libmaple/libmaple/stm32f1/i2c.o
 .text.i2c_config_gpios
                0x00000000       0x52 build//Users/marcus/Dropbox/Studienarbeit/Sourcecode/StudienarbeitX/Library/libmaple/libmaple/stm32f1/i2c.o
 .text.T.4      0x00000000        0xa build//Users/marcus/Dropbox/Studienarbeit/Sourcecode/StudienarbeitX/Library/libmaple/libmaple/stm32f1/i2c.o
 .text.i2c_master_release_bus
                0x00000000       0x3a build//Users/marcus/Dropbox/Studienarbeit/Sourcecode/StudienarbeitX/Library/libmaple/libmaple/stm32f1/i2c.o
 .rodata.I2C1   0x00000000        0x4 build//Users/marcus/Dropbox/Studienarbeit/Sourcecode/StudienarbeitX/Library/libmaple/libmaple/stm32f1/i2c.o
 .rodata.I2C2   0x00000000        0x4 build//Users/marcus/Dropbox/Studienarbeit/Sourcecode/StudienarbeitX/Library/libmaple/libmaple/stm32f1/i2c.o
 .text          0x00000000        0x0 build//Users/marcus/Dropbox/Studienarbeit/Sourcecode/StudienarbeitX/Library/libmaple/libmaple/stm32f1/rcc.o
 .data          0x00000000        0x0 build//Users/marcus/Dropbox/Studienarbeit/Sourcecode/StudienarbeitX/Library/libmaple/libmaple/stm32f1/rcc.o
 .bss           0x00000000        0x0 build//Users/marcus/Dropbox/Studienarbeit/Sourcecode/StudienarbeitX/Library/libmaple/libmaple/stm32f1/rcc.o
 .text.rcc_clk_init
                0x00000000       0x58 build//Users/marcus/Dropbox/Studienarbeit/Sourcecode/StudienarbeitX/Library/libmaple/libmaple/stm32f1/rcc.o
 .text          0x00000000        0x0 build//Users/marcus/Dropbox/Studienarbeit/Sourcecode/StudienarbeitX/Library/libmaple/libmaple/stm32f1/spi.o
 .data          0x00000000        0x0 build//Users/marcus/Dropbox/Studienarbeit/Sourcecode/StudienarbeitX/Library/libmaple/libmaple/stm32f1/spi.o
 .bss           0x00000000        0x0 build//Users/marcus/Dropbox/Studienarbeit/Sourcecode/StudienarbeitX/Library/libmaple/libmaple/stm32f1/spi.o
 .text.spi_foreach
                0x00000000       0x1c build//Users/marcus/Dropbox/Studienarbeit/Sourcecode/StudienarbeitX/Library/libmaple/libmaple/stm32f1/spi.o
 .text          0x00000000        0x0 build//Users/marcus/Dropbox/Studienarbeit/Sourcecode/StudienarbeitX/Library/libmaple/libmaple/stm32f1/timer.o
 .data          0x00000000        0x0 build//Users/marcus/Dropbox/Studienarbeit/Sourcecode/StudienarbeitX/Library/libmaple/libmaple/stm32f1/timer.o
 .bss           0x00000000        0x0 build//Users/marcus/Dropbox/Studienarbeit/Sourcecode/StudienarbeitX/Library/libmaple/libmaple/stm32f1/timer.o
 .text          0x00000000        0x0 build//Users/marcus/Dropbox/Studienarbeit/Sourcecode/StudienarbeitX/Library/libmaple/libmaple/stm32f1/usart.o
 .data          0x00000000        0x0 build//Users/marcus/Dropbox/Studienarbeit/Sourcecode/StudienarbeitX/Library/libmaple/libmaple/stm32f1/usart.o
 .bss           0x00000000        0x0 build//Users/marcus/Dropbox/Studienarbeit/Sourcecode/StudienarbeitX/Library/libmaple/libmaple/stm32f1/usart.o
 .text.usart_config_gpios_async
                0x00000000       0x20 build//Users/marcus/Dropbox/Studienarbeit/Sourcecode/StudienarbeitX/Library/libmaple/libmaple/stm32f1/usart.o
 .data          0x00000000        0x0 build//Users/marcus/Dropbox/Studienarbeit/Sourcecode/StudienarbeitX/Library/libmaple/wirish/start.o
 .bss           0x00000000        0x0 build//Users/marcus/Dropbox/Studienarbeit/Sourcecode/StudienarbeitX/Library/libmaple/wirish/start.o
 .ARM.extab     0x00000000        0x0 build//Users/marcus/Dropbox/Studienarbeit/Sourcecode/StudienarbeitX/Library/libmaple/wirish/start.o
 .text          0x00000000        0x0 build//Users/marcus/Dropbox/Studienarbeit/Sourcecode/StudienarbeitX/Library/libmaple/wirish/start_c.o
 .data          0x00000000        0x0 build//Users/marcus/Dropbox/Studienarbeit/Sourcecode/StudienarbeitX/Library/libmaple/wirish/start_c.o
 .bss           0x00000000        0x0 build//Users/marcus/Dropbox/Studienarbeit/Sourcecode/StudienarbeitX/Library/libmaple/wirish/start_c.o
 .text          0x00000000        0x0 build//Users/marcus/Dropbox/Studienarbeit/Sourcecode/StudienarbeitX/Library/libmaple/wirish/syscalls.o
 .data          0x00000000        0x0 build//Users/marcus/Dropbox/Studienarbeit/Sourcecode/StudienarbeitX/Library/libmaple/wirish/syscalls.o
 .bss           0x00000000        0x0 build//Users/marcus/Dropbox/Studienarbeit/Sourcecode/StudienarbeitX/Library/libmaple/wirish/syscalls.o
 .text._open    0x00000000        0x8 build//Users/marcus/Dropbox/Studienarbeit/Sourcecode/StudienarbeitX/Library/libmaple/wirish/syscalls.o
 .text._close   0x00000000        0x4 build//Users/marcus/Dropbox/Studienarbeit/Sourcecode/StudienarbeitX/Library/libmaple/wirish/syscalls.o
 .text._fstat   0x00000000        0xa build//Users/marcus/Dropbox/Studienarbeit/Sourcecode/StudienarbeitX/Library/libmaple/wirish/syscalls.o
 .text._isatty  0x00000000        0x4 build//Users/marcus/Dropbox/Studienarbeit/Sourcecode/StudienarbeitX/Library/libmaple/wirish/syscalls.o
 .text.isatty   0x00000000        0x4 build//Users/marcus/Dropbox/Studienarbeit/Sourcecode/StudienarbeitX/Library/libmaple/wirish/syscalls.o
 .text._lseek   0x00000000        0x6 build//Users/marcus/Dropbox/Studienarbeit/Sourcecode/StudienarbeitX/Library/libmaple/wirish/syscalls.o
 .text.getch    0x00000000        0x4 build//Users/marcus/Dropbox/Studienarbeit/Sourcecode/StudienarbeitX/Library/libmaple/wirish/syscalls.o
 .text._read    0x00000000        0xe build//Users/marcus/Dropbox/Studienarbeit/Sourcecode/StudienarbeitX/Library/libmaple/wirish/syscalls.o
 .text.putch    0x00000000        0x2 build//Users/marcus/Dropbox/Studienarbeit/Sourcecode/StudienarbeitX/Library/libmaple/wirish/syscalls.o
 .text.cgets    0x00000000       0x6c build//Users/marcus/Dropbox/Studienarbeit/Sourcecode/StudienarbeitX/Library/libmaple/wirish/syscalls.o
 .text._write   0x00000000       0x1a build//Users/marcus/Dropbox/Studienarbeit/Sourcecode/StudienarbeitX/Library/libmaple/wirish/syscalls.o
 .text.fgets    0x00000000        0xc build//Users/marcus/Dropbox/Studienarbeit/Sourcecode/StudienarbeitX/Library/libmaple/wirish/syscalls.o
 .text          0x00000000        0x0 build//Users/marcus/Dropbox/Studienarbeit/Sourcecode/StudienarbeitX/Library/libmaple/wirish/stm32f1/util_hooks.o
 .data          0x00000000        0x0 build//Users/marcus/Dropbox/Studienarbeit/Sourcecode/StudienarbeitX/Library/libmaple/wirish/stm32f1/util_hooks.o
 .bss           0x00000000        0x0 build//Users/marcus/Dropbox/Studienarbeit/Sourcecode/StudienarbeitX/Library/libmaple/wirish/stm32f1/util_hooks.o
 .text          0x00000000        0x0 build//Users/marcus/Dropbox/Studienarbeit/Sourcecode/StudienarbeitX/Library/libmaple/wirish/boards.o
 .data          0x00000000        0x0 build//Users/marcus/Dropbox/Studienarbeit/Sourcecode/StudienarbeitX/Library/libmaple/wirish/boards.o
 .bss           0x00000000        0x0 build//Users/marcus/Dropbox/Studienarbeit/Sourcecode/StudienarbeitX/Library/libmaple/wirish/boards.o
 .text._Z12boardUsesPinh
                0x00000000       0x1c build//Users/marcus/Dropbox/Studienarbeit/Sourcecode/StudienarbeitX/Library/libmaple/wirish/boards.o
 .text          0x00000000        0x0 build//Users/marcus/Dropbox/Studienarbeit/Sourcecode/StudienarbeitX/Library/libmaple/wirish/cxxabi-compat.o
 .data          0x00000000        0x0 build//Users/marcus/Dropbox/Studienarbeit/Sourcecode/StudienarbeitX/Library/libmaple/wirish/cxxabi-compat.o
 .bss           0x00000000        0x0 build//Users/marcus/Dropbox/Studienarbeit/Sourcecode/StudienarbeitX/Library/libmaple/wirish/cxxabi-compat.o
 .text          0x00000000        0x0 build//Users/marcus/Dropbox/Studienarbeit/Sourcecode/StudienarbeitX/Library/libmaple/wirish/ext_interrupts.o
 .data          0x00000000        0x0 build//Users/marcus/Dropbox/Studienarbeit/Sourcecode/StudienarbeitX/Library/libmaple/wirish/ext_interrupts.o
 .bss           0x00000000        0x0 build//Users/marcus/Dropbox/Studienarbeit/Sourcecode/StudienarbeitX/Library/libmaple/wirish/ext_interrupts.o
 .text._Z15detachInterrupth
                0x00000000       0x18 build//Users/marcus/Dropbox/Studienarbeit/Sourcecode/StudienarbeitX/Library/libmaple/wirish/ext_interrupts.o
 .text._Z15attachInterrupthPFvvE17ExtIntTriggerMode
                0x00000000       0x50 build//Users/marcus/Dropbox/Studienarbeit/Sourcecode/StudienarbeitX/Library/libmaple/wirish/ext_interrupts.o
 .rodata.str1.1
                0x00000000       0x6b build//Users/marcus/Dropbox/Studienarbeit/Sourcecode/StudienarbeitX/Library/libmaple/wirish/ext_interrupts.o
 .group         0x00000000        0x8 build//Users/marcus/Dropbox/Studienarbeit/Sourcecode/StudienarbeitX/Library/libmaple/wirish/HardwareSerial.o
 .text          0x00000000        0x0 build//Users/marcus/Dropbox/Studienarbeit/Sourcecode/StudienarbeitX/Library/libmaple/wirish/HardwareSerial.o
 .data          0x00000000        0x0 build//Users/marcus/Dropbox/Studienarbeit/Sourcecode/StudienarbeitX/Library/libmaple/wirish/HardwareSerial.o
 .bss           0x00000000        0x0 build//Users/marcus/Dropbox/Studienarbeit/Sourcecode/StudienarbeitX/Library/libmaple/wirish/HardwareSerial.o
 .text._ZN14HardwareSerialC2EP9usart_devhh
                0x00000000       0x20 build//Users/marcus/Dropbox/Studienarbeit/Sourcecode/StudienarbeitX/Library/libmaple/wirish/HardwareSerial.o
 .text._ZN14HardwareSerial4readEv
                0x00000000       0x1c build//Users/marcus/Dropbox/Studienarbeit/Sourcecode/StudienarbeitX/Library/libmaple/wirish/HardwareSerial.o
 .text._ZN14HardwareSerial9availableEv
                0x00000000       0x22 build//Users/marcus/Dropbox/Studienarbeit/Sourcecode/StudienarbeitX/Library/libmaple/wirish/HardwareSerial.o
 .text._ZN14HardwareSerial5flushEv
                0x00000000        0xa build//Users/marcus/Dropbox/Studienarbeit/Sourcecode/StudienarbeitX/Library/libmaple/wirish/HardwareSerial.o
 .text._ZN14HardwareSerial3endEv
                0x00000000        0x6 build//Users/marcus/Dropbox/Studienarbeit/Sourcecode/StudienarbeitX/Library/libmaple/wirish/HardwareSerial.o
 .text._ZN14HardwareSerial5beginEj
                0x00000000       0x88 build//Users/marcus/Dropbox/Studienarbeit/Sourcecode/StudienarbeitX/Library/libmaple/wirish/HardwareSerial.o
 .rodata.str1.1
                0x00000000       0x8e build//Users/marcus/Dropbox/Studienarbeit/Sourcecode/StudienarbeitX/Library/libmaple/wirish/HardwareSerial.o
 .text          0x00000000        0x0 build//Users/marcus/Dropbox/Studienarbeit/Sourcecode/StudienarbeitX/Library/libmaple/wirish/HardwareTimer.o
 .data          0x00000000        0x0 build//Users/marcus/Dropbox/Studienarbeit/Sourcecode/StudienarbeitX/Library/libmaple/wirish/HardwareTimer.o
 .bss           0x00000000        0x0 build//Users/marcus/Dropbox/Studienarbeit/Sourcecode/StudienarbeitX/Library/libmaple/wirish/HardwareTimer.o
 .text._ZN13HardwareTimer17getPrescaleFactorEv
                0x00000000        0xc build//Users/marcus/Dropbox/Studienarbeit/Sourcecode/StudienarbeitX/Library/libmaple/wirish/HardwareTimer.o
 .text._ZN13HardwareTimer17setPrescaleFactorEj
                0x00000000        0xc build//Users/marcus/Dropbox/Studienarbeit/Sourcecode/StudienarbeitX/Library/libmaple/wirish/HardwareTimer.o
 .text._ZN13HardwareTimer11getOverflowEv
                0x00000000        0xa build//Users/marcus/Dropbox/Studienarbeit/Sourcecode/StudienarbeitX/Library/libmaple/wirish/HardwareTimer.o
 .text._ZN13HardwareTimer11setOverflowEt
                0x00000000        0x8 build//Users/marcus/Dropbox/Studienarbeit/Sourcecode/StudienarbeitX/Library/libmaple/wirish/HardwareTimer.o
 .text._ZN13HardwareTimer8getCountEv
                0x00000000        0xa build//Users/marcus/Dropbox/Studienarbeit/Sourcecode/StudienarbeitX/Library/libmaple/wirish/HardwareTimer.o
 .text._ZN13HardwareTimer8setCountEt
                0x00000000       0x12 build//Users/marcus/Dropbox/Studienarbeit/Sourcecode/StudienarbeitX/Library/libmaple/wirish/HardwareTimer.o
 .text._ZN13HardwareTimer9setPeriodEj
                0x00000000       0x4a build//Users/marcus/Dropbox/Studienarbeit/Sourcecode/StudienarbeitX/Library/libmaple/wirish/HardwareTimer.o
 .text._ZN13HardwareTimer10getCompareEi
                0x00000000       0x12 build//Users/marcus/Dropbox/Studienarbeit/Sourcecode/StudienarbeitX/Library/libmaple/wirish/HardwareTimer.o
 .text._ZN13HardwareTimer10setCompareEit
                0x00000000       0x1a build//Users/marcus/Dropbox/Studienarbeit/Sourcecode/StudienarbeitX/Library/libmaple/wirish/HardwareTimer.o
 .text._ZN13HardwareTimer15detachInterruptEi
                0x00000000        0x8 build//Users/marcus/Dropbox/Studienarbeit/Sourcecode/StudienarbeitX/Library/libmaple/wirish/HardwareTimer.o
 .text._ZN13HardwareTimer15attachInterruptEiPFvvE
                0x00000000        0x8 build//Users/marcus/Dropbox/Studienarbeit/Sourcecode/StudienarbeitX/Library/libmaple/wirish/HardwareTimer.o
 .text._ZN13HardwareTimer7setModeEi10timer_mode
                0x00000000        0x8 build//Users/marcus/Dropbox/Studienarbeit/Sourcecode/StudienarbeitX/Library/libmaple/wirish/HardwareTimer.o
 .text._ZN13HardwareTimerC2Eh
                0x00000000       0x48 build//Users/marcus/Dropbox/Studienarbeit/Sourcecode/StudienarbeitX/Library/libmaple/wirish/HardwareTimer.o
 .text.T.10     0x00000000        0x8 build//Users/marcus/Dropbox/Studienarbeit/Sourcecode/StudienarbeitX/Library/libmaple/wirish/HardwareTimer.o
 .text._ZN13HardwareTimer7refreshEv
                0x00000000       0x12 build//Users/marcus/Dropbox/Studienarbeit/Sourcecode/StudienarbeitX/Library/libmaple/wirish/HardwareTimer.o
 .text._ZN13HardwareTimer6resumeEv
                0x00000000       0x10 build//Users/marcus/Dropbox/Studienarbeit/Sourcecode/StudienarbeitX/Library/libmaple/wirish/HardwareTimer.o
 .text._ZN13HardwareTimer5pauseEv
                0x00000000       0x10 build//Users/marcus/Dropbox/Studienarbeit/Sourcecode/StudienarbeitX/Library/libmaple/wirish/HardwareTimer.o
 .text          0x00000000        0x0 build//Users/marcus/Dropbox/Studienarbeit/Sourcecode/StudienarbeitX/Library/libmaple/wirish/Print.o
 .data          0x00000000        0x0 build//Users/marcus/Dropbox/Studienarbeit/Sourcecode/StudienarbeitX/Library/libmaple/wirish/Print.o
 .bss           0x00000000        0x0 build//Users/marcus/Dropbox/Studienarbeit/Sourcecode/StudienarbeitX/Library/libmaple/wirish/Print.o
 .text._ZN5Print7printlnEc
                0x00000000       0x12 build//Users/marcus/Dropbox/Studienarbeit/Sourcecode/StudienarbeitX/Library/libmaple/wirish/Print.o
 .text._ZN5Print7printlnEyi
                0x00000000       0x18 build//Users/marcus/Dropbox/Studienarbeit/Sourcecode/StudienarbeitX/Library/libmaple/wirish/Print.o
 .text._ZN5Print7printlnEmi
                0x00000000       0x1a build//Users/marcus/Dropbox/Studienarbeit/Sourcecode/StudienarbeitX/Library/libmaple/wirish/Print.o
 .text._ZN5Print5printEmi
                0x00000000        0xe build//Users/marcus/Dropbox/Studienarbeit/Sourcecode/StudienarbeitX/Library/libmaple/wirish/Print.o
 .text._ZN5Print5printEhi
                0x00000000       0x12 build//Users/marcus/Dropbox/Studienarbeit/Sourcecode/StudienarbeitX/Library/libmaple/wirish/Print.o
 .text._ZN5Print7printlnEhi
                0x00000000       0x12 build//Users/marcus/Dropbox/Studienarbeit/Sourcecode/StudienarbeitX/Library/libmaple/wirish/Print.o
 .text._ZN5Print7printlnExi
                0x00000000       0x18 build//Users/marcus/Dropbox/Studienarbeit/Sourcecode/StudienarbeitX/Library/libmaple/wirish/Print.o
 .text._ZN5Print7printlnEli
                0x00000000       0x1c build//Users/marcus/Dropbox/Studienarbeit/Sourcecode/StudienarbeitX/Library/libmaple/wirish/Print.o
 .text._ZN5Print5printEli
                0x00000000       0x10 build//Users/marcus/Dropbox/Studienarbeit/Sourcecode/StudienarbeitX/Library/libmaple/wirish/Print.o
 .text._ZN5Print7printlnEii
                0x00000000       0x12 build//Users/marcus/Dropbox/Studienarbeit/Sourcecode/StudienarbeitX/Library/libmaple/wirish/Print.o
 .text._ZN5Print10printFloatEdh
                0x00000000      0x150 build//Users/marcus/Dropbox/Studienarbeit/Sourcecode/StudienarbeitX/Library/libmaple/wirish/Print.o
 .text._ZN5Print5printEdi
                0x00000000        0xa build//Users/marcus/Dropbox/Studienarbeit/Sourcecode/StudienarbeitX/Library/libmaple/wirish/Print.o
 .text._ZN5Print7printlnEdi
                0x00000000       0x18 build//Users/marcus/Dropbox/Studienarbeit/Sourcecode/StudienarbeitX/Library/libmaple/wirish/Print.o
 .rodata.str1.1
                0x00000000       0x11 build//Users/marcus/Dropbox/Studienarbeit/Sourcecode/StudienarbeitX/Library/libmaple/wirish/Print.o
 .text          0x00000000        0x0 build//Users/marcus/Dropbox/Studienarbeit/Sourcecode/StudienarbeitX/Library/libmaple/wirish/pwm.o
 .data          0x00000000        0x0 build//Users/marcus/Dropbox/Studienarbeit/Sourcecode/StudienarbeitX/Library/libmaple/wirish/pwm.o
 .bss           0x00000000        0x0 build//Users/marcus/Dropbox/Studienarbeit/Sourcecode/StudienarbeitX/Library/libmaple/wirish/pwm.o
 .text._Z8pwmWriteht
                0x00000000       0x38 build//Users/marcus/Dropbox/Studienarbeit/Sourcecode/StudienarbeitX/Library/libmaple/wirish/pwm.o
 .rodata.str1.1
                0x00000000       0x70 build//Users/marcus/Dropbox/Studienarbeit/Sourcecode/StudienarbeitX/Library/libmaple/wirish/pwm.o
 .group         0x00000000        0x8 build//Users/marcus/Dropbox/Studienarbeit/Sourcecode/StudienarbeitX/Library/libmaple/wirish/usb_serial.o
 .text          0x00000000        0x0 build//Users/marcus/Dropbox/Studienarbeit/Sourcecode/StudienarbeitX/Library/libmaple/wirish/usb_serial.o
 .data          0x00000000        0x0 build//Users/marcus/Dropbox/Studienarbeit/Sourcecode/StudienarbeitX/Library/libmaple/wirish/usb_serial.o
 .bss           0x00000000        0x0 build//Users/marcus/Dropbox/Studienarbeit/Sourcecode/StudienarbeitX/Library/libmaple/wirish/usb_serial.o
 .text._ZN5PrintC2Ev
                0x00000000        0xc build//Users/marcus/Dropbox/Studienarbeit/Sourcecode/StudienarbeitX/Library/libmaple/wirish/usb_serial.o
 .text._ZN9USBSerialC2Ev
                0x00000000       0x14 build//Users/marcus/Dropbox/Studienarbeit/Sourcecode/StudienarbeitX/Library/libmaple/wirish/usb_serial.o
 .text._ZN9USBSerial6getRTSEv
                0x00000000        0x4 build//Users/marcus/Dropbox/Studienarbeit/Sourcecode/StudienarbeitX/Library/libmaple/wirish/usb_serial.o
 .text._ZN9USBSerial6getDTREv
                0x00000000        0x4 build//Users/marcus/Dropbox/Studienarbeit/Sourcecode/StudienarbeitX/Library/libmaple/wirish/usb_serial.o
 .text._ZN9USBSerial7pendingEv
                0x00000000        0xa build//Users/marcus/Dropbox/Studienarbeit/Sourcecode/StudienarbeitX/Library/libmaple/wirish/usb_serial.o
 .text._ZN9USBSerial4readEPvj
                0x00000000       0x22 build//Users/marcus/Dropbox/Studienarbeit/Sourcecode/StudienarbeitX/Library/libmaple/wirish/usb_serial.o
 .text._ZN9USBSerial4readEv
                0x00000000       0x12 build//Users/marcus/Dropbox/Studienarbeit/Sourcecode/StudienarbeitX/Library/libmaple/wirish/usb_serial.o
 .text._ZN9USBSerial3endEv
                0x00000000       0x10 build//Users/marcus/Dropbox/Studienarbeit/Sourcecode/StudienarbeitX/Library/libmaple/wirish/usb_serial.o
 .text          0x00000000        0x0 build//Users/marcus/Dropbox/Studienarbeit/Sourcecode/StudienarbeitX/Library/libmaple/wirish/HardwareSPI.o
 .data          0x00000000        0x0 build//Users/marcus/Dropbox/Studienarbeit/Sourcecode/StudienarbeitX/Library/libmaple/wirish/HardwareSPI.o
 .bss           0x00000000        0x0 build//Users/marcus/Dropbox/Studienarbeit/Sourcecode/StudienarbeitX/Library/libmaple/wirish/HardwareSPI.o
 .text.spi_is_tx_empty
                0x00000000        0xa build//Users/marcus/Dropbox/Studienarbeit/Sourcecode/StudienarbeitX/Library/libmaple/wirish/HardwareSPI.o
 .text._ZN11HardwareSPI11RefTransferEPKvPtj
                0x00000000       0x72 build//Users/marcus/Dropbox/Studienarbeit/Sourcecode/StudienarbeitX/Library/libmaple/wirish/HardwareSPI.o
 .text._ZN11HardwareSPI4recvEv
                0x00000000        0x4 build//Users/marcus/Dropbox/Studienarbeit/Sourcecode/StudienarbeitX/Library/libmaple/wirish/HardwareSPI.o
 .text._ZN11HardwareSPI6sckPinEv
                0x00000000        0xc build//Users/marcus/Dropbox/Studienarbeit/Sourcecode/StudienarbeitX/Library/libmaple/wirish/HardwareSPI.o
 .text._ZN11HardwareSPI7mosiPinEv
                0x00000000        0xc build//Users/marcus/Dropbox/Studienarbeit/Sourcecode/StudienarbeitX/Library/libmaple/wirish/HardwareSPI.o
 .text._ZN11HardwareSPI7misoPinEv
                0x00000000        0xc build//Users/marcus/Dropbox/Studienarbeit/Sourcecode/StudienarbeitX/Library/libmaple/wirish/HardwareSPI.o
 .text._ZN11HardwareSPI4sendEPhj
                0x00000000       0x24 build//Users/marcus/Dropbox/Studienarbeit/Sourcecode/StudienarbeitX/Library/libmaple/wirish/HardwareSPI.o
 .text._ZN11HardwareSPI4sendEh
                0x00000000       0x12 build//Users/marcus/Dropbox/Studienarbeit/Sourcecode/StudienarbeitX/Library/libmaple/wirish/HardwareSPI.o
 .text._ZN11HardwareSPI3endEv
                0x00000000       0x50 build//Users/marcus/Dropbox/Studienarbeit/Sourcecode/StudienarbeitX/Library/libmaple/wirish/HardwareSPI.o
 .text._ZN11HardwareSPIC2Ej
                0x00000000       0x38 build//Users/marcus/Dropbox/Studienarbeit/Sourcecode/StudienarbeitX/Library/libmaple/wirish/HardwareSPI.o
 .text._ZN11HardwareSPI10beginSlaveEjj
                0x00000000       0x3c build//Users/marcus/Dropbox/Studienarbeit/Sourcecode/StudienarbeitX/Library/libmaple/wirish/HardwareSPI.o
 .text._ZN11HardwareSPI10beginSlaveEv
                0x00000000        0x8 build//Users/marcus/Dropbox/Studienarbeit/Sourcecode/StudienarbeitX/Library/libmaple/wirish/HardwareSPI.o
 .text._ZN11HardwareSPI5beginEv
                0x00000000        0xa build//Users/marcus/Dropbox/Studienarbeit/Sourcecode/StudienarbeitX/Library/libmaple/wirish/HardwareSPI.o
 .text          0x00000000        0x0 build//Users/marcus/Dropbox/Studienarbeit/Sourcecode/StudienarbeitX/Library/libmaple/wirish/wirish_analog.o
 .data          0x00000000        0x0 build//Users/marcus/Dropbox/Studienarbeit/Sourcecode/StudienarbeitX/Library/libmaple/wirish/wirish_analog.o
 .bss           0x00000000        0x0 build//Users/marcus/Dropbox/Studienarbeit/Sourcecode/StudienarbeitX/Library/libmaple/wirish/wirish_analog.o
 .text._Z10analogReadh
                0x00000000       0x1c build//Users/marcus/Dropbox/Studienarbeit/Sourcecode/StudienarbeitX/Library/libmaple/wirish/wirish_analog.o
 .text          0x00000000        0x0 build//Users/marcus/Dropbox/Studienarbeit/Sourcecode/StudienarbeitX/Library/libmaple/wirish/wirish_digital.o
 .data          0x00000000        0x0 build//Users/marcus/Dropbox/Studienarbeit/Sourcecode/StudienarbeitX/Library/libmaple/wirish/wirish_digital.o
 .bss           0x00000000        0x0 build//Users/marcus/Dropbox/Studienarbeit/Sourcecode/StudienarbeitX/Library/libmaple/wirish/wirish_digital.o
 .text._Z11digitalReadh
                0x00000000       0x2c build//Users/marcus/Dropbox/Studienarbeit/Sourcecode/StudienarbeitX/Library/libmaple/wirish/wirish_digital.o
 .text._Z9togglePinh
                0x00000000       0x24 build//Users/marcus/Dropbox/Studienarbeit/Sourcecode/StudienarbeitX/Library/libmaple/wirish/wirish_digital.o
 .text._Z15isButtonPressedhj
                0x00000000       0x28 build//Users/marcus/Dropbox/Studienarbeit/Sourcecode/StudienarbeitX/Library/libmaple/wirish/wirish_digital.o
 .text._Z18waitForButtonPressj
                0x00000000       0x48 build//Users/marcus/Dropbox/Studienarbeit/Sourcecode/StudienarbeitX/Library/libmaple/wirish/wirish_digital.o
 .text          0x00000000        0x0 build//Users/marcus/Dropbox/Studienarbeit/Sourcecode/StudienarbeitX/Library/libmaple/wirish/wirish_math.o
 .data          0x00000000        0x0 build//Users/marcus/Dropbox/Studienarbeit/Sourcecode/StudienarbeitX/Library/libmaple/wirish/wirish_math.o
 .bss           0x00000000        0x0 build//Users/marcus/Dropbox/Studienarbeit/Sourcecode/StudienarbeitX/Library/libmaple/wirish/wirish_math.o
 .text._Z6randoml
                0x00000000       0x16 build//Users/marcus/Dropbox/Studienarbeit/Sourcecode/StudienarbeitX/Library/libmaple/wirish/wirish_math.o
 .text._Z6randomll
                0x00000000       0x14 build//Users/marcus/Dropbox/Studienarbeit/Sourcecode/StudienarbeitX/Library/libmaple/wirish/wirish_math.o
 .text._Z10randomSeedj
                0x00000000        0x8 build//Users/marcus/Dropbox/Studienarbeit/Sourcecode/StudienarbeitX/Library/libmaple/wirish/wirish_math.o
 .text          0x00000000        0x0 build//Users/marcus/Dropbox/Studienarbeit/Sourcecode/StudienarbeitX/Library/libmaple/wirish/wirish_shift.o
 .data          0x00000000        0x0 build//Users/marcus/Dropbox/Studienarbeit/Sourcecode/StudienarbeitX/Library/libmaple/wirish/wirish_shift.o
 .bss           0x00000000        0x0 build//Users/marcus/Dropbox/Studienarbeit/Sourcecode/StudienarbeitX/Library/libmaple/wirish/wirish_shift.o
 .text._Z8shiftOuthhhh
                0x00000000       0x44 build//Users/marcus/Dropbox/Studienarbeit/Sourcecode/StudienarbeitX/Library/libmaple/wirish/wirish_shift.o
 .text          0x00000000        0x0 build//Users/marcus/Dropbox/Studienarbeit/Sourcecode/StudienarbeitX/Library/libmaple/wirish/wirish_time.o
 .data          0x00000000        0x0 build//Users/marcus/Dropbox/Studienarbeit/Sourcecode/StudienarbeitX/Library/libmaple/wirish/wirish_time.o
 .bss           0x00000000        0x0 build//Users/marcus/Dropbox/Studienarbeit/Sourcecode/StudienarbeitX/Library/libmaple/wirish/wirish_time.o
 .text          0x00000000        0x0 build//Users/marcus/Dropbox/Studienarbeit/Sourcecode/StudienarbeitX/Library/libmaple/wirish/stm32f1/boards_setup.o
 .data          0x00000000        0x0 build//Users/marcus/Dropbox/Studienarbeit/Sourcecode/StudienarbeitX/Library/libmaple/wirish/stm32f1/boards_setup.o
 .bss           0x00000000        0x0 build//Users/marcus/Dropbox/Studienarbeit/Sourcecode/StudienarbeitX/Library/libmaple/wirish/stm32f1/boards_setup.o
 .text          0x00000000        0x0 build//Users/marcus/Dropbox/Studienarbeit/Sourcecode/StudienarbeitX/Library/libmaple/wirish/stm32f1/wirish_digital.o
 .data          0x00000000        0x0 build//Users/marcus/Dropbox/Studienarbeit/Sourcecode/StudienarbeitX/Library/libmaple/wirish/stm32f1/wirish_digital.o
 .bss           0x00000000        0x0 build//Users/marcus/Dropbox/Studienarbeit/Sourcecode/StudienarbeitX/Library/libmaple/wirish/stm32f1/wirish_digital.o
 .text          0x00000000        0x0 build//Users/marcus/Dropbox/Studienarbeit/Sourcecode/StudienarbeitX/Library/libmaple/wirish/stm32f1/wirish_debug.o
 .data          0x00000000        0x0 build//Users/marcus/Dropbox/Studienarbeit/Sourcecode/StudienarbeitX/Library/libmaple/wirish/stm32f1/wirish_debug.o
 .bss           0x00000000        0x0 build//Users/marcus/Dropbox/Studienarbeit/Sourcecode/StudienarbeitX/Library/libmaple/wirish/stm32f1/wirish_debug.o
 .text.afio_cfg_debug_ports
                0x00000000       0x14 build//Users/marcus/Dropbox/Studienarbeit/Sourcecode/StudienarbeitX/Library/libmaple/wirish/stm32f1/wirish_debug.o
 .text._Z17disableDebugPortsv
                0x00000000        0x8 build//Users/marcus/Dropbox/Studienarbeit/Sourcecode/StudienarbeitX/Library/libmaple/wirish/stm32f1/wirish_debug.o
 .text._Z16enableDebugPortsv
                0x00000000        0x6 build//Users/marcus/Dropbox/Studienarbeit/Sourcecode/StudienarbeitX/Library/libmaple/wirish/stm32f1/wirish_debug.o
 .text          0x00000000        0x0 build//Users/marcus/Dropbox/Studienarbeit/Sourcecode/StudienarbeitX/Library/libmaple/wirish/boards/maple/board.o
 .data          0x00000000        0x0 build//Users/marcus/Dropbox/Studienarbeit/Sourcecode/StudienarbeitX/Library/libmaple/wirish/boards/maple/board.o
 .bss           0x00000000        0x0 build//Users/marcus/Dropbox/Studienarbeit/Sourcecode/StudienarbeitX/Library/libmaple/wirish/boards/maple/board.o
 .USER_FLASH    0x00000000       0x28 build//Users/marcus/Dropbox/Studienarbeit/Sourcecode/StudienarbeitX/Library/libmaple/wirish/boards/maple/board.o
 .group         0x00000000        0x8 build//Users/marcus/Dropbox/Studienarbeit/Sourcecode/StudienarbeitX/Library/libmaple/libraries/Servo/Servo.o
 .text          0x00000000        0x0 build//Users/marcus/Dropbox/Studienarbeit/Sourcecode/StudienarbeitX/Library/libmaple/libraries/Servo/Servo.o
 .data          0x00000000        0x0 build//Users/marcus/Dropbox/Studienarbeit/Sourcecode/StudienarbeitX/Library/libmaple/libraries/Servo/Servo.o
 .bss           0x00000000        0x0 build//Users/marcus/Dropbox/Studienarbeit/Sourcecode/StudienarbeitX/Library/libmaple/libraries/Servo/Servo.o
 .text._ZNK5Servo8attachedEv
                0x00000000        0xe build//Users/marcus/Dropbox/Studienarbeit/Sourcecode/StudienarbeitX/Library/libmaple/libraries/Servo/Servo.o
 .text._ZL3maplllll
                0x00000000       0x1a build//Users/marcus/Dropbox/Studienarbeit/Sourcecode/StudienarbeitX/Library/libmaple/libraries/Servo/Servo.o
 .text._ZN5Servo11resetFieldsEv
                0x00000000       0x20 build//Users/marcus/Dropbox/Studienarbeit/Sourcecode/StudienarbeitX/Library/libmaple/libraries/Servo/Servo.o
 .text._ZN5ServoC1Ev
                0x00000000        0xc build//Users/marcus/Dropbox/Studienarbeit/Sourcecode/StudienarbeitX/Library/libmaple/libraries/Servo/Servo.o
 .text._ZN5ServoC2Ev
                0x00000000        0xc build//Users/marcus/Dropbox/Studienarbeit/Sourcecode/StudienarbeitX/Library/libmaple/libraries/Servo/Servo.o
 .text._ZNK5Servo16readMicrosecondsEv
                0x00000000       0x68 build//Users/marcus/Dropbox/Studienarbeit/Sourcecode/StudienarbeitX/Library/libmaple/libraries/Servo/Servo.o
 .text._ZNK5Servo4readEv
                0x00000000       0x2a build//Users/marcus/Dropbox/Studienarbeit/Sourcecode/StudienarbeitX/Library/libmaple/libraries/Servo/Servo.o
 .text._ZN5Servo17writeMicrosecondsEt
                0x00000000       0x54 build//Users/marcus/Dropbox/Studienarbeit/Sourcecode/StudienarbeitX/Library/libmaple/libraries/Servo/Servo.o
 .text._ZN5Servo5writeEi
                0x00000000       0x38 build//Users/marcus/Dropbox/Studienarbeit/Sourcecode/StudienarbeitX/Library/libmaple/libraries/Servo/Servo.o
 .text._ZN5Servo6detachEv
                0x00000000       0x30 build//Users/marcus/Dropbox/Studienarbeit/Sourcecode/StudienarbeitX/Library/libmaple/libraries/Servo/Servo.o
 .text.T.15     0x00000000        0x8 build//Users/marcus/Dropbox/Studienarbeit/Sourcecode/StudienarbeitX/Library/libmaple/libraries/Servo/Servo.o
 .text._ZN5Servo6attachEhttss
                0x00000000       0x78 build//Users/marcus/Dropbox/Studienarbeit/Sourcecode/StudienarbeitX/Library/libmaple/libraries/Servo/Servo.o
 .rodata.str1.1
                0x00000000       0x6b build//Users/marcus/Dropbox/Studienarbeit/Sourcecode/StudienarbeitX/Library/libmaple/libraries/Servo/Servo.o
 .group         0x00000000        0x8 build//Users/marcus/Dropbox/Studienarbeit/Sourcecode/StudienarbeitX/Library/libmaple/libraries/LiquidCrystal/LiquidCrystal.o
 .group         0x00000000        0x8 build//Users/marcus/Dropbox/Studienarbeit/Sourcecode/StudienarbeitX/Library/libmaple/libraries/LiquidCrystal/LiquidCrystal.o
 .group         0x00000000        0x8 build//Users/marcus/Dropbox/Studienarbeit/Sourcecode/StudienarbeitX/Library/libmaple/libraries/LiquidCrystal/LiquidCrystal.o
 .group         0x00000000        0x8 build//Users/marcus/Dropbox/Studienarbeit/Sourcecode/StudienarbeitX/Library/libmaple/libraries/LiquidCrystal/LiquidCrystal.o
 .text          0x00000000        0x0 build//Users/marcus/Dropbox/Studienarbeit/Sourcecode/StudienarbeitX/Library/libmaple/libraries/LiquidCrystal/LiquidCrystal.o
 .data          0x00000000        0x0 build//Users/marcus/Dropbox/Studienarbeit/Sourcecode/StudienarbeitX/Library/libmaple/libraries/LiquidCrystal/LiquidCrystal.o
 .bss           0x00000000        0x0 build//Users/marcus/Dropbox/Studienarbeit/Sourcecode/StudienarbeitX/Library/libmaple/libraries/LiquidCrystal/LiquidCrystal.o
 .text._ZN5PrintC2Ev
                0x00000000        0xc build//Users/marcus/Dropbox/Studienarbeit/Sourcecode/StudienarbeitX/Library/libmaple/libraries/LiquidCrystal/LiquidCrystal.o
 .text._ZN13LiquidCrystal11pulseEnableEv
                0x00000000       0x2e build//Users/marcus/Dropbox/Studienarbeit/Sourcecode/StudienarbeitX/Library/libmaple/libraries/LiquidCrystal/LiquidCrystal.o
 .text._ZN13LiquidCrystal10write8bitsEh
                0x00000000       0x28 build//Users/marcus/Dropbox/Studienarbeit/Sourcecode/StudienarbeitX/Library/libmaple/libraries/LiquidCrystal/LiquidCrystal.o
 .text._ZN13LiquidCrystal10write4bitsEh
                0x00000000       0x28 build//Users/marcus/Dropbox/Studienarbeit/Sourcecode/StudienarbeitX/Library/libmaple/libraries/LiquidCrystal/LiquidCrystal.o
 .text._ZN13LiquidCrystal4sendEhh
                0x00000000       0x40 build//Users/marcus/Dropbox/Studienarbeit/Sourcecode/StudienarbeitX/Library/libmaple/libraries/LiquidCrystal/LiquidCrystal.o
 .text._ZN13LiquidCrystal7commandEh
                0x00000000        0x6 build//Users/marcus/Dropbox/Studienarbeit/Sourcecode/StudienarbeitX/Library/libmaple/libraries/LiquidCrystal/LiquidCrystal.o
 .text._ZN13LiquidCrystal10createCharEhPh
                0x00000000       0x28 build//Users/marcus/Dropbox/Studienarbeit/Sourcecode/StudienarbeitX/Library/libmaple/libraries/LiquidCrystal/LiquidCrystal.o
 .text._ZN13LiquidCrystal12noAutoscrollEv
                0x00000000       0x10 build//Users/marcus/Dropbox/Studienarbeit/Sourcecode/StudienarbeitX/Library/libmaple/libraries/LiquidCrystal/LiquidCrystal.o
 .text._ZN13LiquidCrystal10autoscrollEv
                0x00000000       0x10 build//Users/marcus/Dropbox/Studienarbeit/Sourcecode/StudienarbeitX/Library/libmaple/libraries/LiquidCrystal/LiquidCrystal.o
 .text._ZN13LiquidCrystal11rightToLeftEv
                0x00000000       0x10 build//Users/marcus/Dropbox/Studienarbeit/Sourcecode/StudienarbeitX/Library/libmaple/libraries/LiquidCrystal/LiquidCrystal.o
 .text._ZN13LiquidCrystal11leftToRightEv
                0x00000000       0x10 build//Users/marcus/Dropbox/Studienarbeit/Sourcecode/StudienarbeitX/Library/libmaple/libraries/LiquidCrystal/LiquidCrystal.o
 .text._ZN13LiquidCrystal18scrollDisplayRightEv
                0x00000000        0x6 build//Users/marcus/Dropbox/Studienarbeit/Sourcecode/StudienarbeitX/Library/libmaple/libraries/LiquidCrystal/LiquidCrystal.o
 .text._ZN13LiquidCrystal17scrollDisplayLeftEv
                0x00000000        0x6 build//Users/marcus/Dropbox/Studienarbeit/Sourcecode/StudienarbeitX/Library/libmaple/libraries/LiquidCrystal/LiquidCrystal.o
 .text._ZN13LiquidCrystal5blinkEv
                0x00000000       0x10 build//Users/marcus/Dropbox/Studienarbeit/Sourcecode/StudienarbeitX/Library/libmaple/libraries/LiquidCrystal/LiquidCrystal.o
 .text._ZN13LiquidCrystal7noBlinkEv
                0x00000000       0x10 build//Users/marcus/Dropbox/Studienarbeit/Sourcecode/StudienarbeitX/Library/libmaple/libraries/LiquidCrystal/LiquidCrystal.o
 .text._ZN13LiquidCrystal6cursorEv
                0x00000000       0x10 build//Users/marcus/Dropbox/Studienarbeit/Sourcecode/StudienarbeitX/Library/libmaple/libraries/LiquidCrystal/LiquidCrystal.o
 .text._ZN13LiquidCrystal8noCursorEv
                0x00000000       0x10 build//Users/marcus/Dropbox/Studienarbeit/Sourcecode/StudienarbeitX/Library/libmaple/libraries/LiquidCrystal/LiquidCrystal.o
 .text._ZN13LiquidCrystal7displayEv
                0x00000000       0x10 build//Users/marcus/Dropbox/Studienarbeit/Sourcecode/StudienarbeitX/Library/libmaple/libraries/LiquidCrystal/LiquidCrystal.o
 .text._ZN13LiquidCrystal9noDisplayEv
                0x00000000       0x10 build//Users/marcus/Dropbox/Studienarbeit/Sourcecode/StudienarbeitX/Library/libmaple/libraries/LiquidCrystal/LiquidCrystal.o
 .text._ZN13LiquidCrystal9setCursorEhh
                0x00000000       0x44 build//Users/marcus/Dropbox/Studienarbeit/Sourcecode/StudienarbeitX/Library/libmaple/libraries/LiquidCrystal/LiquidCrystal.o
 .text._ZN13LiquidCrystal5writeEh
                0x00000000        0x6 build//Users/marcus/Dropbox/Studienarbeit/Sourcecode/StudienarbeitX/Library/libmaple/libraries/LiquidCrystal/LiquidCrystal.o
 .text._ZN13LiquidCrystal4homeEv
                0x00000000       0x12 build//Users/marcus/Dropbox/Studienarbeit/Sourcecode/StudienarbeitX/Library/libmaple/libraries/LiquidCrystal/LiquidCrystal.o
 .text._ZN13LiquidCrystal5clearEv
                0x00000000       0x12 build//Users/marcus/Dropbox/Studienarbeit/Sourcecode/StudienarbeitX/Library/libmaple/libraries/LiquidCrystal/LiquidCrystal.o
 .text._ZN13LiquidCrystal5beginEhhh
                0x00000000       0xda build//Users/marcus/Dropbox/Studienarbeit/Sourcecode/StudienarbeitX/Library/libmaple/libraries/LiquidCrystal/LiquidCrystal.o
 .text._ZN13LiquidCrystal4initEhhhhhhhhhhhh
                0x00000000       0x9c build//Users/marcus/Dropbox/Studienarbeit/Sourcecode/StudienarbeitX/Library/libmaple/libraries/LiquidCrystal/LiquidCrystal.o
 .text._ZN13LiquidCrystalC1Ehhhhhh
                0x00000000       0x54 build//Users/marcus/Dropbox/Studienarbeit/Sourcecode/StudienarbeitX/Library/libmaple/libraries/LiquidCrystal/LiquidCrystal.o
 .text._ZN13LiquidCrystalC2Ehhhhhh
                0x00000000       0x54 build//Users/marcus/Dropbox/Studienarbeit/Sourcecode/StudienarbeitX/Library/libmaple/libraries/LiquidCrystal/LiquidCrystal.o
 .text._ZN13LiquidCrystalC1Ehhhhhhh
                0x00000000       0x5c build//Users/marcus/Dropbox/Studienarbeit/Sourcecode/StudienarbeitX/Library/libmaple/libraries/LiquidCrystal/LiquidCrystal.o
 .text._ZN13LiquidCrystalC2Ehhhhhhh
                0x00000000       0x5c build//Users/marcus/Dropbox/Studienarbeit/Sourcecode/StudienarbeitX/Library/libmaple/libraries/LiquidCrystal/LiquidCrystal.o
 .text._ZN13LiquidCrystalC1Ehhhhhhhhhh
                0x00000000       0x70 build//Users/marcus/Dropbox/Studienarbeit/Sourcecode/StudienarbeitX/Library/libmaple/libraries/LiquidCrystal/LiquidCrystal.o
 .text._ZN13LiquidCrystalC2Ehhhhhhhhhh
                0x00000000       0x70 build//Users/marcus/Dropbox/Studienarbeit/Sourcecode/StudienarbeitX/Library/libmaple/libraries/LiquidCrystal/LiquidCrystal.o
 .text._ZN13LiquidCrystalC1Ehhhhhhhhhhh
                0x00000000       0x74 build//Users/marcus/Dropbox/Studienarbeit/Sourcecode/StudienarbeitX/Library/libmaple/libraries/LiquidCrystal/LiquidCrystal.o
 .text._ZN13LiquidCrystalC2Ehhhhhhhhhhh
                0x00000000       0x74 build//Users/marcus/Dropbox/Studienarbeit/Sourcecode/StudienarbeitX/Library/libmaple/libraries/LiquidCrystal/LiquidCrystal.o
 .rodata._ZTV13LiquidCrystal
                0x00000000       0x18 build//Users/marcus/Dropbox/Studienarbeit/Sourcecode/StudienarbeitX/Library/libmaple/libraries/LiquidCrystal/LiquidCrystal.o
 .rodata._ZZN13LiquidCrystal9setCursorEhhE3C.8
                0x00000000       0x10 build//Users/marcus/Dropbox/Studienarbeit/Sourcecode/StudienarbeitX/Library/libmaple/libraries/LiquidCrystal/LiquidCrystal.o
 .text          0x00000000        0x0 build//Users/marcus/Dropbox/Studienarbeit/Sourcecode/StudienarbeitX/Library/libmaple/libraries/Wire/WireBase.o
 .data          0x00000000        0x0 build//Users/marcus/Dropbox/Studienarbeit/Sourcecode/StudienarbeitX/Library/libmaple/libraries/Wire/WireBase.o
 .bss           0x00000000        0x0 build//Users/marcus/Dropbox/Studienarbeit/Sourcecode/StudienarbeitX/Library/libmaple/libraries/Wire/WireBase.o
 .text._ZN8WireBase5beginEh
                0x00000000       0x14 build//Users/marcus/Dropbox/Studienarbeit/Sourcecode/StudienarbeitX/Library/libmaple/libraries/Wire/WireBase.o
 .text._ZN8WireBase17beginTransmissionEh
                0x00000000       0x14 build//Users/marcus/Dropbox/Studienarbeit/Sourcecode/StudienarbeitX/Library/libmaple/libraries/Wire/WireBase.o
 .text._ZN8WireBase17beginTransmissionEi
                0x00000000        0x6 build//Users/marcus/Dropbox/Studienarbeit/Sourcecode/StudienarbeitX/Library/libmaple/libraries/Wire/WireBase.o
 .text._ZN8WireBase15endTransmissionEv
                0x00000000       0x20 build//Users/marcus/Dropbox/Studienarbeit/Sourcecode/StudienarbeitX/Library/libmaple/libraries/Wire/WireBase.o
 .text._ZN8WireBase11requestFromEhi
                0x00000000       0x3a build//Users/marcus/Dropbox/Studienarbeit/Sourcecode/StudienarbeitX/Library/libmaple/libraries/Wire/WireBase.o
 .text._ZN8WireBase11requestFromEii
                0x00000000        0x6 build//Users/marcus/Dropbox/Studienarbeit/Sourcecode/StudienarbeitX/Library/libmaple/libraries/Wire/WireBase.o
 .text._ZN8WireBase4sendEh
                0x00000000       0x24 build//Users/marcus/Dropbox/Studienarbeit/Sourcecode/StudienarbeitX/Library/libmaple/libraries/Wire/WireBase.o
 .text._ZN8WireBase4sendEPhi
                0x00000000       0x1e build//Users/marcus/Dropbox/Studienarbeit/Sourcecode/StudienarbeitX/Library/libmaple/libraries/Wire/WireBase.o
 .text._ZN8WireBase4sendEi
                0x00000000        0x6 build//Users/marcus/Dropbox/Studienarbeit/Sourcecode/StudienarbeitX/Library/libmaple/libraries/Wire/WireBase.o
 .text._ZN8WireBase4sendEPii
                0x00000000        0x6 build//Users/marcus/Dropbox/Studienarbeit/Sourcecode/StudienarbeitX/Library/libmaple/libraries/Wire/WireBase.o
 .text._ZN8WireBase4sendEPc
                0x00000000       0x1a build//Users/marcus/Dropbox/Studienarbeit/Sourcecode/StudienarbeitX/Library/libmaple/libraries/Wire/WireBase.o
 .text._ZN8WireBase9availableEv
                0x00000000        0xe build//Users/marcus/Dropbox/Studienarbeit/Sourcecode/StudienarbeitX/Library/libmaple/libraries/Wire/WireBase.o
 .text._ZN8WireBase7receiveEv
                0x00000000       0x3a build//Users/marcus/Dropbox/Studienarbeit/Sourcecode/StudienarbeitX/Library/libmaple/libraries/Wire/WireBase.o
 .rodata._ZTV8WireBase
                0x00000000       0x10 build//Users/marcus/Dropbox/Studienarbeit/Sourcecode/StudienarbeitX/Library/libmaple/libraries/Wire/WireBase.o
 .group         0x00000000        0x8 build//Users/marcus/Dropbox/Studienarbeit/Sourcecode/StudienarbeitX/Library/libmaple/libraries/Wire/HardWire.o
 .group         0x00000000        0x8 build//Users/marcus/Dropbox/Studienarbeit/Sourcecode/StudienarbeitX/Library/libmaple/libraries/Wire/HardWire.o
 .text          0x00000000        0x0 build//Users/marcus/Dropbox/Studienarbeit/Sourcecode/StudienarbeitX/Library/libmaple/libraries/Wire/HardWire.o
 .data          0x00000000        0x0 build//Users/marcus/Dropbox/Studienarbeit/Sourcecode/StudienarbeitX/Library/libmaple/libraries/Wire/HardWire.o
 .bss           0x00000000        0x0 build//Users/marcus/Dropbox/Studienarbeit/Sourcecode/StudienarbeitX/Library/libmaple/libraries/Wire/HardWire.o
 .text.i2c_disable
                0x00000000       0x12 build//Users/marcus/Dropbox/Studienarbeit/Sourcecode/StudienarbeitX/Library/libmaple/libraries/Wire/HardWire.o
 .text._ZN8WireBaseC2Ev
                0x00000000        0xc build//Users/marcus/Dropbox/Studienarbeit/Sourcecode/StudienarbeitX/Library/libmaple/libraries/Wire/HardWire.o
 .text._ZN8WireBaseD2Ev
                0x00000000        0xc build//Users/marcus/Dropbox/Studienarbeit/Sourcecode/StudienarbeitX/Library/libmaple/libraries/Wire/HardWire.o
 .text._ZN8HardWireD2Ev
                0x00000000       0x20 build//Users/marcus/Dropbox/Studienarbeit/Sourcecode/StudienarbeitX/Library/libmaple/libraries/Wire/HardWire.o
 .text._ZN8HardWireD1Ev
                0x00000000       0x20 build//Users/marcus/Dropbox/Studienarbeit/Sourcecode/StudienarbeitX/Library/libmaple/libraries/Wire/HardWire.o
 .text._ZN8HardWireC1Ehh
                0x00000000       0x40 build//Users/marcus/Dropbox/Studienarbeit/Sourcecode/StudienarbeitX/Library/libmaple/libraries/Wire/HardWire.o
 .text._ZN8HardWireC2Ehh
                0x00000000       0x40 build//Users/marcus/Dropbox/Studienarbeit/Sourcecode/StudienarbeitX/Library/libmaple/libraries/Wire/HardWire.o
 .text._ZN8HardWire7processEv
                0x00000000       0x2e build//Users/marcus/Dropbox/Studienarbeit/Sourcecode/StudienarbeitX/Library/libmaple/libraries/Wire/HardWire.o
 .rodata._ZTV8HardWire
                0x00000000       0x10 build//Users/marcus/Dropbox/Studienarbeit/Sourcecode/StudienarbeitX/Library/libmaple/libraries/Wire/HardWire.o
 .group         0x00000000        0x8 build//Users/marcus/Dropbox/Studienarbeit/Sourcecode/StudienarbeitX/Library/libmaple/libraries/Wire/Wire.o
 .group         0x00000000        0x8 build//Users/marcus/Dropbox/Studienarbeit/Sourcecode/StudienarbeitX/Library/libmaple/libraries/Wire/Wire.o
 .text          0x00000000        0x0 build//Users/marcus/Dropbox/Studienarbeit/Sourcecode/StudienarbeitX/Library/libmaple/libraries/Wire/Wire.o
 .data          0x00000000        0x0 build//Users/marcus/Dropbox/Studienarbeit/Sourcecode/StudienarbeitX/Library/libmaple/libraries/Wire/Wire.o
 .bss           0x00000000        0x0 build//Users/marcus/Dropbox/Studienarbeit/Sourcecode/StudienarbeitX/Library/libmaple/libraries/Wire/Wire.o
 .text._ZN8WireBaseC2Ev
                0x00000000        0xc build//Users/marcus/Dropbox/Studienarbeit/Sourcecode/StudienarbeitX/Library/libmaple/libraries/Wire/Wire.o
 .text._ZN8WireBaseD2Ev
                0x00000000        0xc build//Users/marcus/Dropbox/Studienarbeit/Sourcecode/StudienarbeitX/Library/libmaple/libraries/Wire/Wire.o
 .text._ZN7TwoWireC2Ehhh
                0x00000000       0x28 build//Users/marcus/Dropbox/Studienarbeit/Sourcecode/StudienarbeitX/Library/libmaple/libraries/Wire/Wire.o
 .text._ZN7TwoWireC1Ehhh
                0x00000000       0x28 build//Users/marcus/Dropbox/Studienarbeit/Sourcecode/StudienarbeitX/Library/libmaple/libraries/Wire/Wire.o
 .text._ZN7TwoWireD2Ev
                0x00000000       0x20 build//Users/marcus/Dropbox/Studienarbeit/Sourcecode/StudienarbeitX/Library/libmaple/libraries/Wire/Wire.o
 .text._ZN7TwoWireD1Ev
                0x00000000       0x20 build//Users/marcus/Dropbox/Studienarbeit/Sourcecode/StudienarbeitX/Library/libmaple/libraries/Wire/Wire.o
 .text._ZN7TwoWire7set_sdaEb
                0x00000000       0x18 build//Users/marcus/Dropbox/Studienarbeit/Sourcecode/StudienarbeitX/Library/libmaple/libraries/Wire/Wire.o
 .text._ZN7TwoWire7set_sclEb
                0x00000000       0x30 build//Users/marcus/Dropbox/Studienarbeit/Sourcecode/StudienarbeitX/Library/libmaple/libraries/Wire/Wire.o
 .text._ZN7TwoWire5beginEh
                0x00000000       0x3e build//Users/marcus/Dropbox/Studienarbeit/Sourcecode/StudienarbeitX/Library/libmaple/libraries/Wire/Wire.o
 .text._ZN7TwoWire13i2c_shift_outEh
                0x00000000       0x2c build//Users/marcus/Dropbox/Studienarbeit/Sourcecode/StudienarbeitX/Library/libmaple/libraries/Wire/Wire.o
 .text._ZN7TwoWire12i2c_shift_inEv
                0x00000000       0x34 build//Users/marcus/Dropbox/Studienarbeit/Sourcecode/StudienarbeitX/Library/libmaple/libraries/Wire/Wire.o
 .text._ZN7TwoWire13i2c_send_nackEv
                0x00000000       0x1e build//Users/marcus/Dropbox/Studienarbeit/Sourcecode/StudienarbeitX/Library/libmaple/libraries/Wire/Wire.o
 .text._ZN7TwoWire12i2c_send_ackEv
                0x00000000       0x1e build//Users/marcus/Dropbox/Studienarbeit/Sourcecode/StudienarbeitX/Library/libmaple/libraries/Wire/Wire.o
 .text._ZN7TwoWire11i2c_get_ackEv
                0x00000000       0x36 build//Users/marcus/Dropbox/Studienarbeit/Sourcecode/StudienarbeitX/Library/libmaple/libraries/Wire/Wire.o
 .text._ZN7TwoWire8i2c_stopEv
                0x00000000       0x1e build//Users/marcus/Dropbox/Studienarbeit/Sourcecode/StudienarbeitX/Library/libmaple/libraries/Wire/Wire.o
 .text._ZN7TwoWire9i2c_startEv
                0x00000000       0x16 build//Users/marcus/Dropbox/Studienarbeit/Sourcecode/StudienarbeitX/Library/libmaple/libraries/Wire/Wire.o
 .text._ZN7TwoWire7processEv
                0x00000000       0x98 build//Users/marcus/Dropbox/Studienarbeit/Sourcecode/StudienarbeitX/Library/libmaple/libraries/Wire/Wire.o
 .rodata._ZTV7TwoWire
                0x00000000       0x10 build//Users/marcus/Dropbox/Studienarbeit/Sourcecode/StudienarbeitX/Library/libmaple/libraries/Wire/Wire.o
 .group         0x00000000        0x8 build//Users/marcus/Dropbox/Studienarbeit/Sourcecode/StudienarbeitX/Library/TinyWebServer/TinyWebServer.o
 .group         0x00000000        0x8 build//Users/marcus/Dropbox/Studienarbeit/Sourcecode/StudienarbeitX/Library/TinyWebServer/TinyWebServer.o
 .group         0x00000000        0x8 build//Users/marcus/Dropbox/Studienarbeit/Sourcecode/StudienarbeitX/Library/TinyWebServer/TinyWebServer.o
 .group         0x00000000        0x8 build//Users/marcus/Dropbox/Studienarbeit/Sourcecode/StudienarbeitX/Library/TinyWebServer/TinyWebServer.o
 .group         0x00000000        0x8 build//Users/marcus/Dropbox/Studienarbeit/Sourcecode/StudienarbeitX/Library/TinyWebServer/TinyWebServer.o
 .group         0x00000000        0x8 build//Users/marcus/Dropbox/Studienarbeit/Sourcecode/StudienarbeitX/Library/TinyWebServer/TinyWebServer.o
 .group         0x00000000        0x8 build//Users/marcus/Dropbox/Studienarbeit/Sourcecode/StudienarbeitX/Library/TinyWebServer/TinyWebServer.o
 .group         0x00000000        0x8 build//Users/marcus/Dropbox/Studienarbeit/Sourcecode/StudienarbeitX/Library/TinyWebServer/TinyWebServer.o
 .text          0x00000000        0x0 build//Users/marcus/Dropbox/Studienarbeit/Sourcecode/StudienarbeitX/Library/TinyWebServer/TinyWebServer.o
 .data          0x00000000        0x0 build//Users/marcus/Dropbox/Studienarbeit/Sourcecode/StudienarbeitX/Library/TinyWebServer/TinyWebServer.o
 .bss           0x00000000        0x0 build//Users/marcus/Dropbox/Studienarbeit/Sourcecode/StudienarbeitX/Library/TinyWebServer/TinyWebServer.o
 .text._ZN5PrintC2Ev
                0x00000000        0xc build//Users/marcus/Dropbox/Studienarbeit/Sourcecode/StudienarbeitX/Library/TinyWebServer/TinyWebServer.o
 .text._ZN5PrintC2ERKS_
                0x00000000        0xc build//Users/marcus/Dropbox/Studienarbeit/Sourcecode/StudienarbeitX/Library/TinyWebServer/TinyWebServer.o
 .text._ZN17WFSEthernetClientC1ERKS_
                0x00000000       0x1c build//Users/marcus/Dropbox/Studienarbeit/Sourcecode/StudienarbeitX/Library/TinyWebServer/TinyWebServer.o
 .text._ZN13TinyWebServer8get_pathEv
                0x00000000        0x4 build//Users/marcus/Dropbox/Studienarbeit/Sourcecode/StudienarbeitX/Library/TinyWebServer/TinyWebServer.o
 .text._ZN13TinyWebServer8get_typeEv
                0x00000000        0x6 build//Users/marcus/Dropbox/Studienarbeit/Sourcecode/StudienarbeitX/Library/TinyWebServer/TinyWebServer.o
 .text._ZN17TinyWebPutHandler10read_charsER13TinyWebServerR17WFSEthernetClientPhi
                0x00000000       0x32 build//Users/marcus/Dropbox/Studienarbeit/Sourcecode/StudienarbeitX/Library/TinyWebServer/TinyWebServer.o
 .text._ZN13TinyWebServer17send_content_typeEPKc
                0x00000000       0x20 build//Users/marcus/Dropbox/Studienarbeit/Sourcecode/StudienarbeitX/Library/TinyWebServer/TinyWebServer.o
 .text._ZN13TinyWebServer11end_headersEv
                0x00000000        0x6 build//Users/marcus/Dropbox/Studienarbeit/Sourcecode/StudienarbeitX/Library/TinyWebServer/TinyWebServer.o
 .text._ZN13TinyWebServer27get_mime_type_from_filenameEPKc
                0x00000000       0x6c build//Users/marcus/Dropbox/Studienarbeit/Sourcecode/StudienarbeitX/Library/TinyWebServer/TinyWebServer.o
 .text._ZN13TinyWebServer16get_header_valueEPKc
                0x00000000       0x24 build//Users/marcus/Dropbox/Studienarbeit/Sourcecode/StudienarbeitX/Library/TinyWebServer/TinyWebServer.o
 .text._ZN13TinyWebServer17send_content_typeEt
                0x00000000       0x38 build//Users/marcus/Dropbox/Studienarbeit/Sourcecode/StudienarbeitX/Library/TinyWebServer/TinyWebServer.o
 .text._ZN17TinyWebPutHandler11put_handlerER13TinyWebServer
                0x00000000       0xd8 build//Users/marcus/Dropbox/Studienarbeit/Sourcecode/StudienarbeitX/Library/TinyWebServer/TinyWebServer.o
 .text._ZN13TinyWebServer18decode_url_encodedEPKc
                0x00000000       0xb0 build//Users/marcus/Dropbox/Studienarbeit/Sourcecode/StudienarbeitX/Library/TinyWebServer/TinyWebServer.o
 .text._ZN13TinyWebServer18get_file_from_pathEPKc
                0x00000000       0x2c build//Users/marcus/Dropbox/Studienarbeit/Sourcecode/StudienarbeitX/Library/TinyWebServer/TinyWebServer.o
 .text._ZN13TinyWebServerC2EPNS_11PathHandlerEPPKc
                0x00000000       0x70 build//Users/marcus/Dropbox/Studienarbeit/Sourcecode/StudienarbeitX/Library/TinyWebServer/TinyWebServer.o
 .USER_FLASH    0x00000000        0x4 build//Users/marcus/Dropbox/Studienarbeit/Sourcecode/StudienarbeitX/Library/TinyWebServer/TinyWebServer.o
 .bss._ZN17TinyWebPutHandler14put_handler_fnE
                0x00000000        0x4 build//Users/marcus/Dropbox/Studienarbeit/Sourcecode/StudienarbeitX/Library/TinyWebServer/TinyWebServer.o
 .text          0x00000000        0x0 build//Users/marcus/Dropbox/Studienarbeit/Sourcecode/StudienarbeitX/Library/WiFlySerial/SpiUart.o
 .data          0x00000000        0x0 build//Users/marcus/Dropbox/Studienarbeit/Sourcecode/StudienarbeitX/Library/WiFlySerial/SpiUart.o
 .bss           0x00000000        0x0 build//Users/marcus/Dropbox/Studienarbeit/Sourcecode/StudienarbeitX/Library/WiFlySerial/SpiUart.o
 .text._ZN13SpiUartDevice9bulk_readEPhj
                0x00000000       0x24 build//Users/marcus/Dropbox/Studienarbeit/Sourcecode/StudienarbeitX/Library/WiFlySerial/SpiUart.o
 .text._ZN13SpiUartDevice10ioSetStateEh
                0x00000000        0x8 build//Users/marcus/Dropbox/Studienarbeit/Sourcecode/StudienarbeitX/Library/WiFlySerial/SpiUart.o
 .text._ZN13SpiUartDevice14ioSetDirectionEh
                0x00000000        0x8 build//Users/marcus/Dropbox/Studienarbeit/Sourcecode/StudienarbeitX/Library/WiFlySerial/SpiUart.o
 .group         0x00000000        0x8 build//Users/marcus/Dropbox/Studienarbeit/Sourcecode/StudienarbeitX/Library/WiFlySerial/WiFlySerial.o
 .text          0x00000000        0x0 build//Users/marcus/Dropbox/Studienarbeit/Sourcecode/StudienarbeitX/Library/WiFlySerial/WiFlySerial.o
 .data          0x00000000        0x0 build//Users/marcus/Dropbox/Studienarbeit/Sourcecode/StudienarbeitX/Library/WiFlySerial/WiFlySerial.o
 .bss           0x00000000        0x0 build//Users/marcus/Dropbox/Studienarbeit/Sourcecode/StudienarbeitX/Library/WiFlySerial/WiFlySerial.o
 .text._ZN11WiFlySerial13printInternalEv
                0x00000000        0x2 build//Users/marcus/Dropbox/Studienarbeit/Sourcecode/StudienarbeitX/Library/WiFlySerial/WiFlySerial.o
 .text._ZN5PrintC2Ev
                0x00000000        0xc build//Users/marcus/Dropbox/Studienarbeit/Sourcecode/StudienarbeitX/Library/WiFlySerial/WiFlySerial.o
 .text._ZN11WiFlySerialC2Ev
                0x00000000       0x34 build//Users/marcus/Dropbox/Studienarbeit/Sourcecode/StudienarbeitX/Library/WiFlySerial/WiFlySerial.o
 .text._ZN11WiFlySerial15isInCommandModeEv
                0x00000000        0x4 build//Users/marcus/Dropbox/Studienarbeit/Sourcecode/StudienarbeitX/Library/WiFlySerial/WiFlySerial.o
 .text._ZN11WiFlySerial17setNTP_UTC_OffsetEf
                0x00000000       0x20 build//Users/marcus/Dropbox/Studienarbeit/Sourcecode/StudienarbeitX/Library/WiFlySerial/WiFlySerial.o
 .text._ZN11WiFlySerial5drainEv
                0x00000000       0x30 build//Users/marcus/Dropbox/Studienarbeit/Sourcecode/StudienarbeitX/Library/WiFlySerial/WiFlySerial.o
 .text._Z16IP_ArrayToBufferPKhPci
                0x00000000       0x3c build//Users/marcus/Dropbox/Studienarbeit/Sourcecode/StudienarbeitX/Library/WiFlySerial/WiFlySerial.o
 .text._Z16BufferToIP_ArrayPcPh
                0x00000000       0x50 build//Users/marcus/Dropbox/Studienarbeit/Sourcecode/StudienarbeitX/Library/WiFlySerial/WiFlySerial.o
 .text._ZN11WiFlySerial11saveSettingEv
                0x00000000       0x34 build//Users/marcus/Dropbox/Studienarbeit/Sourcecode/StudienarbeitX/Library/WiFlySerial/WiFlySerial.o
 .text._ZN11WiFlySerial13setRemotePortEi
                0x00000000       0x22 build//Users/marcus/Dropbox/Studienarbeit/Sourcecode/StudienarbeitX/Library/WiFlySerial/WiFlySerial.o
 .text._ZN11WiFlySerial11setJoinModeEi
                0x00000000       0x20 build//Users/marcus/Dropbox/Studienarbeit/Sourcecode/StudienarbeitX/Library/WiFlySerial/WiFlySerial.o
 .text._ZN11WiFlySerial11setAuthModeEi
                0x00000000       0x20 build//Users/marcus/Dropbox/Studienarbeit/Sourcecode/StudienarbeitX/Library/WiFlySerial/WiFlySerial.o
 .text._ZN11WiFlySerial10setChannelEPKc
                0x00000000        0x8 build//Users/marcus/Dropbox/Studienarbeit/Sourcecode/StudienarbeitX/Library/WiFlySerial/WiFlySerial.o
 .text._ZN11WiFlySerial6setDNSEPKc
                0x00000000        0x8 build//Users/marcus/Dropbox/Studienarbeit/Sourcecode/StudienarbeitX/Library/WiFlySerial/WiFlySerial.o
 .text._ZN11WiFlySerial10setGatewayEPKc
                0x00000000        0x8 build//Users/marcus/Dropbox/Studienarbeit/Sourcecode/StudienarbeitX/Library/WiFlySerial/WiFlySerial.o
 .text._ZN11WiFlySerial10setNetMaskEPKc
                0x00000000        0x8 build//Users/marcus/Dropbox/Studienarbeit/Sourcecode/StudienarbeitX/Library/WiFlySerial/WiFlySerial.o
 .text._ZN11WiFlySerial5setIPEPKc
                0x00000000        0x8 build//Users/marcus/Dropbox/Studienarbeit/Sourcecode/StudienarbeitX/Library/WiFlySerial/WiFlySerial.o
 .text._ZN11WiFlySerial11setDHCPModeEi
                0x00000000       0x20 build//Users/marcus/Dropbox/Studienarbeit/Sourcecode/StudienarbeitX/Library/WiFlySerial/WiFlySerial.o
 .text._ZN11WiFlySerial11setDeviceIDEPKc
                0x00000000        0x8 build//Users/marcus/Dropbox/Studienarbeit/Sourcecode/StudienarbeitX/Library/WiFlySerial/WiFlySerial.o
 .text._ZN11WiFlySerial23setNTP_Update_FrequencyEPKc
                0x00000000        0x8 build//Users/marcus/Dropbox/Studienarbeit/Sourcecode/StudienarbeitX/Library/WiFlySerial/WiFlySerial.o
 .text._ZN11WiFlySerial6setNTPEPKc
                0x00000000        0x8 build//Users/marcus/Dropbox/Studienarbeit/Sourcecode/StudienarbeitX/Library/WiFlySerial/WiFlySerial.o
 .text._ZN11WiFlySerial13setPassphraseEPKc
                0x00000000        0x8 build//Users/marcus/Dropbox/Studienarbeit/Sourcecode/StudienarbeitX/Library/WiFlySerial/WiFlySerial.o
 .text._ZN11WiFlySerial7setSSIDEPKc
                0x00000000        0x8 build//Users/marcus/Dropbox/Studienarbeit/Sourcecode/StudienarbeitX/Library/WiFlySerial/WiFlySerial.o
 .text._ZN11WiFlySerial4joinEPc
                0x00000000       0x54 build//Users/marcus/Dropbox/Studienarbeit/Sourcecode/StudienarbeitX/Library/WiFlySerial/WiFlySerial.o
 .text._ZN11WiFlySerial5leaveEv
                0x00000000       0x2c build//Users/marcus/Dropbox/Studienarbeit/Sourcecode/StudienarbeitX/Library/WiFlySerial/WiFlySerial.o
 .text._ZN11WiFlySerial14openConnectionEPKcm
                0x00000000       0x74 build//Users/marcus/Dropbox/Studienarbeit/Sourcecode/StudienarbeitX/Library/WiFlySerial/WiFlySerial.o
 .text._ZN11WiFlySerial15showNetworkScanEPci
                0x00000000       0x30 build//Users/marcus/Dropbox/Studienarbeit/Sourcecode/StudienarbeitX/Library/WiFlySerial/WiFlySerial.o
 .text._ZN11WiFlySerial17SendInquirySimpleEPc
                0x00000000       0x24 build//Users/marcus/Dropbox/Studienarbeit/Sourcecode/StudienarbeitX/Library/WiFlySerial/WiFlySerial.o
 .text._ZN11WiFlySerial11SendInquiryEPcS0_i
                0x00000000       0x22 build//Users/marcus/Dropbox/Studienarbeit/Sourcecode/StudienarbeitX/Library/WiFlySerial/WiFlySerial.o
 .text._ZN11WiFlySerial6isifUpEv
                0x00000000       0x30 build//Users/marcus/Dropbox/Studienarbeit/Sourcecode/StudienarbeitX/Library/WiFlySerial/WiFlySerial.o
 .text._ZN11WiFlySerial7getTimeEv
                0x00000000       0x20 build//Users/marcus/Dropbox/Studienarbeit/Sourcecode/StudienarbeitX/Library/WiFlySerial/WiFlySerial.o
 .text._ZN11WiFlySerial11getSyncTimeEv
                0x00000000       0x14 build//Users/marcus/Dropbox/Studienarbeit/Sourcecode/StudienarbeitX/Library/WiFlySerial/WiFlySerial.o
 .text._ZN11WiFlySerial11getDeviceIDEPci
                0x00000000       0x18 build//Users/marcus/Dropbox/Studienarbeit/Sourcecode/StudienarbeitX/Library/WiFlySerial/WiFlySerial.o
 .text._ZN11WiFlySerial10getBatteryEPci
                0x00000000       0x18 build//Users/marcus/Dropbox/Studienarbeit/Sourcecode/StudienarbeitX/Library/WiFlySerial/WiFlySerial.o
 .text._ZN11WiFlySerial7getRSSIEPci
                0x00000000       0x18 build//Users/marcus/Dropbox/Studienarbeit/Sourcecode/StudienarbeitX/Library/WiFlySerial/WiFlySerial.o
 .text._ZN11WiFlySerial7getSSIDEPci
                0x00000000       0x18 build//Users/marcus/Dropbox/Studienarbeit/Sourcecode/StudienarbeitX/Library/WiFlySerial/WiFlySerial.o
 .text._ZN11WiFlySerial4joinEv
                0x00000000       0x1a build//Users/marcus/Dropbox/Studienarbeit/Sourcecode/StudienarbeitX/Library/WiFlySerial/WiFlySerial.o
 .text._ZN11WiFlySerial6getDNSEPci
                0x00000000       0x18 build//Users/marcus/Dropbox/Studienarbeit/Sourcecode/StudienarbeitX/Library/WiFlySerial/WiFlySerial.o
 .text._ZN11WiFlySerial10getGatewayEPci
                0x00000000       0x18 build//Users/marcus/Dropbox/Studienarbeit/Sourcecode/StudienarbeitX/Library/WiFlySerial/WiFlySerial.o
 .text._ZN11WiFlySerial10getNetMaskEPci
                0x00000000       0x18 build//Users/marcus/Dropbox/Studienarbeit/Sourcecode/StudienarbeitX/Library/WiFlySerial/WiFlySerial.o
 .text._ZN11WiFlySerial6getMACEPci
                0x00000000       0x18 build//Users/marcus/Dropbox/Studienarbeit/Sourcecode/StudienarbeitX/Library/WiFlySerial/WiFlySerial.o
 .text._ZN11WiFlySerial15getDeviceStatusEv
                0x00000000       0x4c build//Users/marcus/Dropbox/Studienarbeit/Sourcecode/StudienarbeitX/Library/WiFlySerial/WiFlySerial.o
 .text._ZN11WiFlySerial10getChannelEv
                0x00000000       0x18 build//Users/marcus/Dropbox/Studienarbeit/Sourcecode/StudienarbeitX/Library/WiFlySerial/WiFlySerial.o
 .text._ZN11WiFlySerial14isDNScontactedEv
                0x00000000       0x18 build//Users/marcus/Dropbox/Studienarbeit/Sourcecode/StudienarbeitX/Library/WiFlySerial/WiFlySerial.o
 .text._ZN11WiFlySerial10isDNSfoundEv
                0x00000000       0x1a build//Users/marcus/Dropbox/Studienarbeit/Sourcecode/StudienarbeitX/Library/WiFlySerial/WiFlySerial.o
 .text._ZN11WiFlySerial15isAuthenticatedEv
                0x00000000       0x1a build//Users/marcus/Dropbox/Studienarbeit/Sourcecode/StudienarbeitX/Library/WiFlySerial/WiFlySerial.o
 .text._ZN11WiFlySerial12isAssociatedEv
                0x00000000       0x1a build//Users/marcus/Dropbox/Studienarbeit/Sourcecode/StudienarbeitX/Library/WiFlySerial/WiFlySerial.o
 .text._ZN11WiFlySerial14isTCPConnectedEv
                0x00000000       0x18 build//Users/marcus/Dropbox/Studienarbeit/Sourcecode/StudienarbeitX/Library/WiFlySerial/WiFlySerial.o
 .text._ZN11WiFlySerial15closeConnectionEb
                0x00000000       0x8c build//Users/marcus/Dropbox/Studienarbeit/Sourcecode/StudienarbeitX/Library/WiFlySerial/WiFlySerial.o
 .text._ZN11WiFlySerial6rebootEv
                0x00000000       0x64 build//Users/marcus/Dropbox/Studienarbeit/Sourcecode/StudienarbeitX/Library/WiFlySerial/WiFlySerial.o
 .text._ZN11WiFlySerial11setProtocolEj
                0x00000000       0x60 build//Users/marcus/Dropbox/Studienarbeit/Sourcecode/StudienarbeitX/Library/WiFlySerial/WiFlySerial.o
 .text          0x00000000        0x0 build//Users/marcus/Dropbox/Studienarbeit/Sourcecode/StudienarbeitX/Library/WiFlySerial/WFSEthernet.o
 .data          0x00000000        0x0 build//Users/marcus/Dropbox/Studienarbeit/Sourcecode/StudienarbeitX/Library/WiFlySerial/WFSEthernet.o
 .bss           0x00000000        0x0 build//Users/marcus/Dropbox/Studienarbeit/Sourcecode/StudienarbeitX/Library/WiFlySerial/WFSEthernet.o
 .text._ZN11WFSEthernetC2Ev
                0x00000000       0x18 build//Users/marcus/Dropbox/Studienarbeit/Sourcecode/StudienarbeitX/Library/WiFlySerial/WFSEthernet.o
 .text._ZN11WFSEthernet11dnsServerIPEv
                0x00000000       0x3c build//Users/marcus/Dropbox/Studienarbeit/Sourcecode/StudienarbeitX/Library/WiFlySerial/WFSEthernet.o
 .text._ZN11WFSEthernet9gatewayIPEv
                0x00000000       0x3c build//Users/marcus/Dropbox/Studienarbeit/Sourcecode/StudienarbeitX/Library/WiFlySerial/WFSEthernet.o
 .text._ZN11WFSEthernet10subnetMaskEv
                0x00000000       0x3c build//Users/marcus/Dropbox/Studienarbeit/Sourcecode/StudienarbeitX/Library/WiFlySerial/WFSEthernet.o
 .text._ZN11WFSEthernet7localIPEv
                0x00000000       0x3c build//Users/marcus/Dropbox/Studienarbeit/Sourcecode/StudienarbeitX/Library/WiFlySerial/WFSEthernet.o
 .text._ZN11WFSEthernet11SendCommandEPc
                0x00000000       0x28 build//Users/marcus/Dropbox/Studienarbeit/Sourcecode/StudienarbeitX/Library/WiFlySerial/WFSEthernet.o
 .text._ZN11WFSEthernet7connectEPht
                0x00000000        0x6 build//Users/marcus/Dropbox/Studienarbeit/Sourcecode/StudienarbeitX/Library/WiFlySerial/WFSEthernet.o
 .text._ZN11WFSEthernet15getDeviceStatusEv
                0x00000000        0x6 build//Users/marcus/Dropbox/Studienarbeit/Sourcecode/StudienarbeitX/Library/WiFlySerial/WFSEthernet.o
 .text._ZN11WFSEthernet12setNTPServerEPcf
                0x00000000       0x7c build//Users/marcus/Dropbox/Studienarbeit/Sourcecode/StudienarbeitX/Library/WiFlySerial/WFSEthernet.o
 .text._ZN11WFSEthernet11credentialsEPcS0_
                0x00000000       0x22 build//Users/marcus/Dropbox/Studienarbeit/Sourcecode/StudienarbeitX/Library/WiFlySerial/WFSEthernet.o
 .text._ZN11WFSEthernet9configureEhhh
                0x00000000       0x2e build//Users/marcus/Dropbox/Studienarbeit/Sourcecode/StudienarbeitX/Library/WiFlySerial/WFSEthernet.o
 .rodata.str1.1
                0x00000000       0x1d build//Users/marcus/Dropbox/Studienarbeit/Sourcecode/StudienarbeitX/Library/WiFlySerial/WFSEthernet.o
 .text          0x00000000        0x0 build//Users/marcus/Dropbox/Studienarbeit/Sourcecode/StudienarbeitX/Library/WiFlySerial/WFSEthernetServer.o
 .data          0x00000000        0x0 build//Users/marcus/Dropbox/Studienarbeit/Sourcecode/StudienarbeitX/Library/WiFlySerial/WFSEthernetServer.o
 .bss           0x00000000        0x0 build//Users/marcus/Dropbox/Studienarbeit/Sourcecode/StudienarbeitX/Library/WiFlySerial/WFSEthernetServer.o
 .text._ZN17WFSEthernetServerC2Etl
                0x00000000       0x10 build//Users/marcus/Dropbox/Studienarbeit/Sourcecode/StudienarbeitX/Library/WiFlySerial/WFSEthernetServer.o
 .text._ZN17WFSEthernetServer10setProfileEv
                0x00000000       0x28 build//Users/marcus/Dropbox/Studienarbeit/Sourcecode/StudienarbeitX/Library/WiFlySerial/WFSEthernetServer.o
 .group         0x00000000        0x8 build//Users/marcus/Dropbox/Studienarbeit/Sourcecode/StudienarbeitX/Library/WiFlySerial/WFSEthernetClient.o
 .text          0x00000000        0x0 build//Users/marcus/Dropbox/Studienarbeit/Sourcecode/StudienarbeitX/Library/WiFlySerial/WFSEthernetClient.o
 .data          0x00000000        0x0 build//Users/marcus/Dropbox/Studienarbeit/Sourcecode/StudienarbeitX/Library/WiFlySerial/WFSEthernetClient.o
 .bss           0x00000000        0x0 build//Users/marcus/Dropbox/Studienarbeit/Sourcecode/StudienarbeitX/Library/WiFlySerial/WFSEthernetClient.o
 .text._ZN5PrintC2Ev
                0x00000000        0xc build//Users/marcus/Dropbox/Studienarbeit/Sourcecode/StudienarbeitX/Library/WiFlySerial/WFSEthernetClient.o
 .text._ZN17WFSEthernetClientC2Ev
                0x00000000       0x14 build//Users/marcus/Dropbox/Studienarbeit/Sourcecode/StudienarbeitX/Library/WiFlySerial/WFSEthernetClient.o
 .text._ZN17WFSEthernetClientC2EP11WFSEthernet
                0x00000000       0x18 build//Users/marcus/Dropbox/Studienarbeit/Sourcecode/StudienarbeitX/Library/WiFlySerial/WFSEthernetClient.o
 .text._ZN17WFSEthernetClient12devicestatusEv
                0x00000000        0xc build//Users/marcus/Dropbox/Studienarbeit/Sourcecode/StudienarbeitX/Library/WiFlySerial/WFSEthernetClient.o
 .data._ZN17WFSEthernetClient8_srcportE
                0x00000000        0x2 build//Users/marcus/Dropbox/Studienarbeit/Sourcecode/StudienarbeitX/Library/WiFlySerial/WFSEthernetClient.o
 .text          0x00000000        0x0 build//Users/marcus/Dropbox/Studienarbeit/Sourcecode/StudienarbeitX/Library/WiFlySerial/WFSIPAddress.o
 .data          0x00000000        0x0 build//Users/marcus/Dropbox/Studienarbeit/Sourcecode/StudienarbeitX/Library/WiFlySerial/WFSIPAddress.o
 .bss           0x00000000        0x0 build//Users/marcus/Dropbox/Studienarbeit/Sourcecode/StudienarbeitX/Library/WiFlySerial/WFSIPAddress.o
 .text._ZN12WFSIPAddressC2Ehhhh
                0x00000000       0x14 build//Users/marcus/Dropbox/Studienarbeit/Sourcecode/StudienarbeitX/Library/WiFlySerial/WFSIPAddress.o
 .text._ZN12WFSIPAddressC1Ehhhh
                0x00000000       0x14 build//Users/marcus/Dropbox/Studienarbeit/Sourcecode/StudienarbeitX/Library/WiFlySerial/WFSIPAddress.o
 .text._ZN12WFSIPAddresseqEPKh
                0x00000000       0x18 build//Users/marcus/Dropbox/Studienarbeit/Sourcecode/StudienarbeitX/Library/WiFlySerial/WFSIPAddress.o
 .text._ZN12WFSIPAddressaSEm
                0x00000000       0x16 build//Users/marcus/Dropbox/Studienarbeit/Sourcecode/StudienarbeitX/Library/WiFlySerial/WFSIPAddress.o
 .text._ZN12WFSIPAddressaSEPKh
                0x00000000        0xe build//Users/marcus/Dropbox/Studienarbeit/Sourcecode/StudienarbeitX/Library/WiFlySerial/WFSIPAddress.o
 .text._ZN12WFSIPAddressC1EPKh
                0x00000000        0xe build//Users/marcus/Dropbox/Studienarbeit/Sourcecode/StudienarbeitX/Library/WiFlySerial/WFSIPAddress.o
 .text._ZN12WFSIPAddressC2EPKh
                0x00000000        0xe build//Users/marcus/Dropbox/Studienarbeit/Sourcecode/StudienarbeitX/Library/WiFlySerial/WFSIPAddress.o
 .text._ZN12WFSIPAddressC1Em
                0x00000000       0x16 build//Users/marcus/Dropbox/Studienarbeit/Sourcecode/StudienarbeitX/Library/WiFlySerial/WFSIPAddress.o
 .text._ZN12WFSIPAddressC2Em
                0x00000000       0x16 build//Users/marcus/Dropbox/Studienarbeit/Sourcecode/StudienarbeitX/Library/WiFlySerial/WFSIPAddress.o
 .text._ZN12WFSIPAddressC2Ev
                0x00000000       0x10 build//Users/marcus/Dropbox/Studienarbeit/Sourcecode/StudienarbeitX/Library/WiFlySerial/WFSIPAddress.o
 .group         0x00000000        0x8 build//Users/marcus/Dropbox/Studienarbeit/Sourcecode/StudienarbeitX/TWS-HelloWorld.o
 .text          0x00000000        0x0 build//Users/marcus/Dropbox/Studienarbeit/Sourcecode/StudienarbeitX/TWS-HelloWorld.o
 .data          0x00000000        0x0 build//Users/marcus/Dropbox/Studienarbeit/Sourcecode/StudienarbeitX/TWS-HelloWorld.o
 .bss           0x00000000        0x0 build//Users/marcus/Dropbox/Studienarbeit/Sourcecode/StudienarbeitX/TWS-HelloWorld.o
 .text._ZN5PrintC2Ev
                0x00000000        0xc build//Users/marcus/Dropbox/Studienarbeit/Sourcecode/StudienarbeitX/TWS-HelloWorld.o
 .bss.bufRequest
                0x00000000       0x78 build//Users/marcus/Dropbox/Studienarbeit/Sourcecode/StudienarbeitX/TWS-HelloWorld.o
 .bss.bufBody   0x00000000       0x64 build//Users/marcus/Dropbox/Studienarbeit/Sourcecode/StudienarbeitX/TWS-HelloWorld.o
 .bss.bufHeader
                0x00000000       0x98 build//Users/marcus/Dropbox/Studienarbeit/Sourcecode/StudienarbeitX/TWS-HelloWorld.o
 .text          0x00000000        0x0 build/main.o
 .data          0x00000000        0x0 build/main.o
 .bss           0x00000000        0x0 build/main.o
 .text          0x00000000      0x370 /usr/local/bin/../lib/gcc/arm-none-eabi/4.4.1/thumb2/libgcc.a(_arm_addsubdf3.o)
 .data          0x00000000        0x0 /usr/local/bin/../lib/gcc/arm-none-eabi/4.4.1/thumb2/libgcc.a(_arm_addsubdf3.o)
 .bss           0x00000000        0x0 /usr/local/bin/../lib/gcc/arm-none-eabi/4.4.1/thumb2/libgcc.a(_arm_addsubdf3.o)
 .text          0x00000000      0x424 /usr/local/bin/../lib/gcc/arm-none-eabi/4.4.1/thumb2/libgcc.a(_arm_muldivdf3.o)
 .data          0x00000000        0x0 /usr/local/bin/../lib/gcc/arm-none-eabi/4.4.1/thumb2/libgcc.a(_arm_muldivdf3.o)
 .bss           0x00000000        0x0 /usr/local/bin/../lib/gcc/arm-none-eabi/4.4.1/thumb2/libgcc.a(_arm_muldivdf3.o)
 .text          0x00000000      0x110 /usr/local/bin/../lib/gcc/arm-none-eabi/4.4.1/thumb2/libgcc.a(_arm_cmpdf2.o)
 .data          0x00000000        0x0 /usr/local/bin/../lib/gcc/arm-none-eabi/4.4.1/thumb2/libgcc.a(_arm_cmpdf2.o)
 .bss           0x00000000        0x0 /usr/local/bin/../lib/gcc/arm-none-eabi/4.4.1/thumb2/libgcc.a(_arm_cmpdf2.o)
 .text          0x00000000       0x50 /usr/local/bin/../lib/gcc/arm-none-eabi/4.4.1/thumb2/libgcc.a(_arm_fixdfsi.o)
 .data          0x00000000        0x0 /usr/local/bin/../lib/gcc/arm-none-eabi/4.4.1/thumb2/libgcc.a(_arm_fixdfsi.o)
 .bss           0x00000000        0x0 /usr/local/bin/../lib/gcc/arm-none-eabi/4.4.1/thumb2/libgcc.a(_arm_fixdfsi.o)
 .text          0x00000000      0x2a0 /usr/local/bin/../lib/gcc/arm-none-eabi/4.4.1/thumb2/libgcc.a(_arm_muldivsf3.o)
 .data          0x00000000        0x0 /usr/local/bin/../lib/gcc/arm-none-eabi/4.4.1/thumb2/libgcc.a(_arm_muldivsf3.o)
 .bss           0x00000000        0x0 /usr/local/bin/../lib/gcc/arm-none-eabi/4.4.1/thumb2/libgcc.a(_arm_muldivsf3.o)
 .text          0x00000000       0x4c /usr/local/bin/../lib/gcc/arm-none-eabi/4.4.1/thumb2/libgcc.a(_arm_fixsfsi.o)
 .data          0x00000000        0x0 /usr/local/bin/../lib/gcc/arm-none-eabi/4.4.1/thumb2/libgcc.a(_arm_fixsfsi.o)
 .bss           0x00000000        0x0 /usr/local/bin/../lib/gcc/arm-none-eabi/4.4.1/thumb2/libgcc.a(_arm_fixsfsi.o)
 .data          0x00000000        0x0 /usr/local/bin/../lib/gcc/arm-none-eabi/4.4.1/thumb2/libgcc.a(_aeabi_uldivmod.o)
 .bss           0x00000000        0x0 /usr/local/bin/../lib/gcc/arm-none-eabi/4.4.1/thumb2/libgcc.a(_aeabi_uldivmod.o)
 .text          0x00000000       0x3c /usr/local/bin/../lib/gcc/arm-none-eabi/4.4.1/thumb2/libgcc.a(_fixdfdi.o)
 .data          0x00000000        0x0 /usr/local/bin/../lib/gcc/arm-none-eabi/4.4.1/thumb2/libgcc.a(_fixdfdi.o)
 .bss           0x00000000        0x0 /usr/local/bin/../lib/gcc/arm-none-eabi/4.4.1/thumb2/libgcc.a(_fixdfdi.o)
 .text          0x00000000       0x44 /usr/local/bin/../lib/gcc/arm-none-eabi/4.4.1/thumb2/libgcc.a(_fixunsdfdi.o)
 .data          0x00000000        0x0 /usr/local/bin/../lib/gcc/arm-none-eabi/4.4.1/thumb2/libgcc.a(_fixunsdfdi.o)
 .bss           0x00000000        0x0 /usr/local/bin/../lib/gcc/arm-none-eabi/4.4.1/thumb2/libgcc.a(_fixunsdfdi.o)
 .data          0x00000000        0x0 /usr/local/bin/../lib/gcc/arm-none-eabi/4.4.1/thumb2/libgcc.a(bpabi.o)
 .bss           0x00000000        0x0 /usr/local/bin/../lib/gcc/arm-none-eabi/4.4.1/thumb2/libgcc.a(bpabi.o)
 .data          0x00000000        0x0 /usr/local/bin/../lib/gcc/arm-none-eabi/4.4.1/thumb2/libgcc.a(_dvmd_tls.o)
 .bss           0x00000000        0x0 /usr/local/bin/../lib/gcc/arm-none-eabi/4.4.1/thumb2/libgcc.a(_dvmd_tls.o)
 .text          0x00000000       0x40 /usr/local/bin/../lib/gcc/arm-none-eabi/4.4.1/thumb2/libgcc.a(_arm_fixunsdfsi.o)
 .data          0x00000000        0x0 /usr/local/bin/../lib/gcc/arm-none-eabi/4.4.1/thumb2/libgcc.a(_arm_fixunsdfsi.o)
 .bss           0x00000000        0x0 /usr/local/bin/../lib/gcc/arm-none-eabi/4.4.1/thumb2/libgcc.a(_arm_fixunsdfsi.o)
 .data          0x00000000        0x0 /usr/local/bin/../lib/gcc/arm-none-eabi/4.4.1/thumb2/libgcc.a(_divdi3.o)
 .bss           0x00000000        0x0 /usr/local/bin/../lib/gcc/arm-none-eabi/4.4.1/thumb2/libgcc.a(_divdi3.o)
 .ARM.extab     0x00000000        0x0 /usr/local/bin/../lib/gcc/arm-none-eabi/4.4.1/thumb2/libgcc.a(_divdi3.o)
 .data          0x00000000        0x0 /usr/local/bin/../lib/gcc/arm-none-eabi/4.4.1/thumb2/libgcc.a(_udivdi3.o)
 .bss           0x00000000        0x0 /usr/local/bin/../lib/gcc/arm-none-eabi/4.4.1/thumb2/libgcc.a(_udivdi3.o)
 .ARM.extab     0x00000000        0x0 /usr/local/bin/../lib/gcc/arm-none-eabi/4.4.1/thumb2/libgcc.a(_udivdi3.o)
 .data          0x00000000        0x0 /usr/local/bin/../lib/gcc/arm-none-eabi/4.4.1/thumb2/libgcc.a(_udivsi3.o)
 .bss           0x00000000        0x0 /usr/local/bin/../lib/gcc/arm-none-eabi/4.4.1/thumb2/libgcc.a(_udivsi3.o)
 .text          0x00000000        0x0 /usr/local/bin/../lib/gcc/arm-none-eabi/4.4.1/../../../../arm-none-eabi/lib/thumb2/libc.a(lib_a-atol.o)
 .data          0x00000000        0x0 /usr/local/bin/../lib/gcc/arm-none-eabi/4.4.1/../../../../arm-none-eabi/lib/thumb2/libc.a(lib_a-atol.o)
 .bss           0x00000000        0x0 /usr/local/bin/../lib/gcc/arm-none-eabi/4.4.1/../../../../arm-none-eabi/lib/thumb2/libc.a(lib_a-atol.o)
 .text._atol_r  0x00000000        0x8 /usr/local/bin/../lib/gcc/arm-none-eabi/4.4.1/../../../../arm-none-eabi/lib/thumb2/libc.a(lib_a-atol.o)
 .text.atol     0x00000000        0x8 /usr/local/bin/../lib/gcc/arm-none-eabi/4.4.1/../../../../arm-none-eabi/lib/thumb2/libc.a(lib_a-atol.o)
 .text          0x00000000        0x0 /usr/local/bin/../lib/gcc/arm-none-eabi/4.4.1/../../../../arm-none-eabi/lib/thumb2/libc.a(lib_a-errno.o)
 .data          0x00000000        0x0 /usr/local/bin/../lib/gcc/arm-none-eabi/4.4.1/../../../../arm-none-eabi/lib/thumb2/libc.a(lib_a-errno.o)
 .bss           0x00000000        0x0 /usr/local/bin/../lib/gcc/arm-none-eabi/4.4.1/../../../../arm-none-eabi/lib/thumb2/libc.a(lib_a-errno.o)
 .text          0x00000000        0x0 /usr/local/bin/../lib/gcc/arm-none-eabi/4.4.1/../../../../arm-none-eabi/lib/thumb2/libc.a(lib_a-impure.o)
 .data          0x00000000        0x0 /usr/local/bin/../lib/gcc/arm-none-eabi/4.4.1/../../../../arm-none-eabi/lib/thumb2/libc.a(lib_a-impure.o)
 .bss           0x00000000        0x0 /usr/local/bin/../lib/gcc/arm-none-eabi/4.4.1/../../../../arm-none-eabi/lib/thumb2/libc.a(lib_a-impure.o)
 .rodata._global_impure_ptr
                0x00000000        0x4 /usr/local/bin/../lib/gcc/arm-none-eabi/4.4.1/../../../../arm-none-eabi/lib/thumb2/libc.a(lib_a-impure.o)
 .text          0x00000000        0x0 /usr/local/bin/../lib/gcc/arm-none-eabi/4.4.1/../../../../arm-none-eabi/lib/thumb2/libc.a(lib_a-init.o)
 .data          0x00000000        0x0 /usr/local/bin/../lib/gcc/arm-none-eabi/4.4.1/../../../../arm-none-eabi/lib/thumb2/libc.a(lib_a-init.o)
 .bss           0x00000000        0x0 /usr/local/bin/../lib/gcc/arm-none-eabi/4.4.1/../../../../arm-none-eabi/lib/thumb2/libc.a(lib_a-init.o)
 .text          0x00000000        0x0 /usr/local/bin/../lib/gcc/arm-none-eabi/4.4.1/../../../../arm-none-eabi/lib/thumb2/libc.a(lib_a-isalnum.o)
 .data          0x00000000        0x0 /usr/local/bin/../lib/gcc/arm-none-eabi/4.4.1/../../../../arm-none-eabi/lib/thumb2/libc.a(lib_a-isalnum.o)
 .bss           0x00000000        0x0 /usr/local/bin/../lib/gcc/arm-none-eabi/4.4.1/../../../../arm-none-eabi/lib/thumb2/libc.a(lib_a-isalnum.o)
 .text          0x00000000        0x0 /usr/local/bin/../lib/gcc/arm-none-eabi/4.4.1/../../../../arm-none-eabi/lib/thumb2/libc.a(lib_a-isspace.o)
 .data          0x00000000        0x0 /usr/local/bin/../lib/gcc/arm-none-eabi/4.4.1/../../../../arm-none-eabi/lib/thumb2/libc.a(lib_a-isspace.o)
 .bss           0x00000000        0x0 /usr/local/bin/../lib/gcc/arm-none-eabi/4.4.1/../../../../arm-none-eabi/lib/thumb2/libc.a(lib_a-isspace.o)
 .text          0x00000000        0x0 /usr/local/bin/../lib/gcc/arm-none-eabi/4.4.1/../../../../arm-none-eabi/lib/thumb2/libc.a(lib_a-malloc.o)
 .data          0x00000000        0x0 /usr/local/bin/../lib/gcc/arm-none-eabi/4.4.1/../../../../arm-none-eabi/lib/thumb2/libc.a(lib_a-malloc.o)
 .bss           0x00000000        0x0 /usr/local/bin/../lib/gcc/arm-none-eabi/4.4.1/../../../../arm-none-eabi/lib/thumb2/libc.a(lib_a-malloc.o)
 .text          0x00000000        0x0 /usr/local/bin/../lib/gcc/arm-none-eabi/4.4.1/../../../../arm-none-eabi/lib/thumb2/libc.a(lib_a-mallocr.o)
 .data          0x00000000        0x0 /usr/local/bin/../lib/gcc/arm-none-eabi/4.4.1/../../../../arm-none-eabi/lib/thumb2/libc.a(lib_a-mallocr.o)
 .bss           0x00000000        0x0 /usr/local/bin/../lib/gcc/arm-none-eabi/4.4.1/../../../../arm-none-eabi/lib/thumb2/libc.a(lib_a-mallocr.o)
 .text          0x00000000        0x0 /usr/local/bin/../lib/gcc/arm-none-eabi/4.4.1/../../../../arm-none-eabi/lib/thumb2/libc.a(lib_a-memcmp.o)
 .data          0x00000000        0x0 /usr/local/bin/../lib/gcc/arm-none-eabi/4.4.1/../../../../arm-none-eabi/lib/thumb2/libc.a(lib_a-memcmp.o)
 .bss           0x00000000        0x0 /usr/local/bin/../lib/gcc/arm-none-eabi/4.4.1/../../../../arm-none-eabi/lib/thumb2/libc.a(lib_a-memcmp.o)
 .text.memcmp   0x00000000       0x22 /usr/local/bin/../lib/gcc/arm-none-eabi/4.4.1/../../../../arm-none-eabi/lib/thumb2/libc.a(lib_a-memcmp.o)
 .text          0x00000000        0x0 /usr/local/bin/../lib/gcc/arm-none-eabi/4.4.1/../../../../arm-none-eabi/lib/thumb2/libc.a(lib_a-memcpy.o)
 .data          0x00000000        0x0 /usr/local/bin/../lib/gcc/arm-none-eabi/4.4.1/../../../../arm-none-eabi/lib/thumb2/libc.a(lib_a-memcpy.o)
 .bss           0x00000000        0x0 /usr/local/bin/../lib/gcc/arm-none-eabi/4.4.1/../../../../arm-none-eabi/lib/thumb2/libc.a(lib_a-memcpy.o)
 .text          0x00000000        0x0 /usr/local/bin/../lib/gcc/arm-none-eabi/4.4.1/../../../../arm-none-eabi/lib/thumb2/libc.a(lib_a-memset.o)
 .data          0x00000000        0x0 /usr/local/bin/../lib/gcc/arm-none-eabi/4.4.1/../../../../arm-none-eabi/lib/thumb2/libc.a(lib_a-memset.o)
 .bss           0x00000000        0x0 /usr/local/bin/../lib/gcc/arm-none-eabi/4.4.1/../../../../arm-none-eabi/lib/thumb2/libc.a(lib_a-memset.o)
 .text          0x00000000        0x0 /usr/local/bin/../lib/gcc/arm-none-eabi/4.4.1/../../../../arm-none-eabi/lib/thumb2/libc.a(lib_a-mlock.o)
 .data          0x00000000        0x0 /usr/local/bin/../lib/gcc/arm-none-eabi/4.4.1/../../../../arm-none-eabi/lib/thumb2/libc.a(lib_a-mlock.o)
 .bss           0x00000000        0x0 /usr/local/bin/../lib/gcc/arm-none-eabi/4.4.1/../../../../arm-none-eabi/lib/thumb2/libc.a(lib_a-mlock.o)
 .text          0x00000000        0x0 /usr/local/bin/../lib/gcc/arm-none-eabi/4.4.1/../../../../arm-none-eabi/lib/thumb2/libc.a(lib_a-rand.o)
 .data          0x00000000        0x0 /usr/local/bin/../lib/gcc/arm-none-eabi/4.4.1/../../../../arm-none-eabi/lib/thumb2/libc.a(lib_a-rand.o)
 .bss           0x00000000        0x0 /usr/local/bin/../lib/gcc/arm-none-eabi/4.4.1/../../../../arm-none-eabi/lib/thumb2/libc.a(lib_a-rand.o)
 .text.rand     0x00000000       0x84 /usr/local/bin/../lib/gcc/arm-none-eabi/4.4.1/../../../../arm-none-eabi/lib/thumb2/libc.a(lib_a-rand.o)
 .text.srand    0x00000000       0x5c /usr/local/bin/../lib/gcc/arm-none-eabi/4.4.1/../../../../arm-none-eabi/lib/thumb2/libc.a(lib_a-rand.o)
 .text          0x00000000        0x0 /usr/local/bin/../lib/gcc/arm-none-eabi/4.4.1/../../../../arm-none-eabi/lib/thumb2/libc.a(lib_a-sbrkr.o)
 .data          0x00000000        0x0 /usr/local/bin/../lib/gcc/arm-none-eabi/4.4.1/../../../../arm-none-eabi/lib/thumb2/libc.a(lib_a-sbrkr.o)
 .bss           0x00000000        0x0 /usr/local/bin/../lib/gcc/arm-none-eabi/4.4.1/../../../../arm-none-eabi/lib/thumb2/libc.a(lib_a-sbrkr.o)
 .text          0x00000000        0x0 /usr/local/bin/../lib/gcc/arm-none-eabi/4.4.1/../../../../arm-none-eabi/lib/thumb2/libc.a(lib_a-strcat.o)
 .data          0x00000000        0x0 /usr/local/bin/../lib/gcc/arm-none-eabi/4.4.1/../../../../arm-none-eabi/lib/thumb2/libc.a(lib_a-strcat.o)
 .bss           0x00000000        0x0 /usr/local/bin/../lib/gcc/arm-none-eabi/4.4.1/../../../../arm-none-eabi/lib/thumb2/libc.a(lib_a-strcat.o)
 .text.strcat   0x00000000       0x1a /usr/local/bin/../lib/gcc/arm-none-eabi/4.4.1/../../../../arm-none-eabi/lib/thumb2/libc.a(lib_a-strcat.o)
 .text          0x00000000        0x0 /usr/local/bin/../lib/gcc/arm-none-eabi/4.4.1/../../../../arm-none-eabi/lib/thumb2/libc.a(lib_a-strchr.o)
 .data          0x00000000        0x0 /usr/local/bin/../lib/gcc/arm-none-eabi/4.4.1/../../../../arm-none-eabi/lib/thumb2/libc.a(lib_a-strchr.o)
 .bss           0x00000000        0x0 /usr/local/bin/../lib/gcc/arm-none-eabi/4.4.1/../../../../arm-none-eabi/lib/thumb2/libc.a(lib_a-strchr.o)
 .text          0x00000000        0x0 /usr/local/bin/../lib/gcc/arm-none-eabi/4.4.1/../../../../arm-none-eabi/lib/thumb2/libc.a(lib_a-strcmp.o)
 .data          0x00000000        0x0 /usr/local/bin/../lib/gcc/arm-none-eabi/4.4.1/../../../../arm-none-eabi/lib/thumb2/libc.a(lib_a-strcmp.o)
 .bss           0x00000000        0x0 /usr/local/bin/../lib/gcc/arm-none-eabi/4.4.1/../../../../arm-none-eabi/lib/thumb2/libc.a(lib_a-strcmp.o)
 .text          0x00000000        0x0 /usr/local/bin/../lib/gcc/arm-none-eabi/4.4.1/../../../../arm-none-eabi/lib/thumb2/libc.a(lib_a-strcpy.o)
 .data          0x00000000        0x0 /usr/local/bin/../lib/gcc/arm-none-eabi/4.4.1/../../../../arm-none-eabi/lib/thumb2/libc.a(lib_a-strcpy.o)
 .bss           0x00000000        0x0 /usr/local/bin/../lib/gcc/arm-none-eabi/4.4.1/../../../../arm-none-eabi/lib/thumb2/libc.a(lib_a-strcpy.o)
 .text          0x00000000        0x0 /usr/local/bin/../lib/gcc/arm-none-eabi/4.4.1/../../../../arm-none-eabi/lib/thumb2/libc.a(lib_a-strlen.o)
 .data          0x00000000        0x0 /usr/local/bin/../lib/gcc/arm-none-eabi/4.4.1/../../../../arm-none-eabi/lib/thumb2/libc.a(lib_a-strlen.o)
 .bss           0x00000000        0x0 /usr/local/bin/../lib/gcc/arm-none-eabi/4.4.1/../../../../arm-none-eabi/lib/thumb2/libc.a(lib_a-strlen.o)
 .text          0x00000000        0x0 /usr/local/bin/../lib/gcc/arm-none-eabi/4.4.1/../../../../arm-none-eabi/lib/thumb2/libc.a(lib_a-strncat.o)
 .data          0x00000000        0x0 /usr/local/bin/../lib/gcc/arm-none-eabi/4.4.1/../../../../arm-none-eabi/lib/thumb2/libc.a(lib_a-strncat.o)
 .bss           0x00000000        0x0 /usr/local/bin/../lib/gcc/arm-none-eabi/4.4.1/../../../../arm-none-eabi/lib/thumb2/libc.a(lib_a-strncat.o)
 .text          0x00000000        0x0 /usr/local/bin/../lib/gcc/arm-none-eabi/4.4.1/../../../../arm-none-eabi/lib/thumb2/libc.a(lib_a-strncmp.o)
 .data          0x00000000        0x0 /usr/local/bin/../lib/gcc/arm-none-eabi/4.4.1/../../../../arm-none-eabi/lib/thumb2/libc.a(lib_a-strncmp.o)
 .bss           0x00000000        0x0 /usr/local/bin/../lib/gcc/arm-none-eabi/4.4.1/../../../../arm-none-eabi/lib/thumb2/libc.a(lib_a-strncmp.o)
 .text          0x00000000        0x0 /usr/local/bin/../lib/gcc/arm-none-eabi/4.4.1/../../../../arm-none-eabi/lib/thumb2/libc.a(lib_a-strncpy.o)
 .data          0x00000000        0x0 /usr/local/bin/../lib/gcc/arm-none-eabi/4.4.1/../../../../arm-none-eabi/lib/thumb2/libc.a(lib_a-strncpy.o)
 .bss           0x00000000        0x0 /usr/local/bin/../lib/gcc/arm-none-eabi/4.4.1/../../../../arm-none-eabi/lib/thumb2/libc.a(lib_a-strncpy.o)
 .text          0x00000000        0x0 /usr/local/bin/../lib/gcc/arm-none-eabi/4.4.1/../../../../arm-none-eabi/lib/thumb2/libc.a(lib_a-strrchr.o)
 .data          0x00000000        0x0 /usr/local/bin/../lib/gcc/arm-none-eabi/4.4.1/../../../../arm-none-eabi/lib/thumb2/libc.a(lib_a-strrchr.o)
 .bss           0x00000000        0x0 /usr/local/bin/../lib/gcc/arm-none-eabi/4.4.1/../../../../arm-none-eabi/lib/thumb2/libc.a(lib_a-strrchr.o)
 .text          0x00000000        0x0 /usr/local/bin/../lib/gcc/arm-none-eabi/4.4.1/../../../../arm-none-eabi/lib/thumb2/libc.a(lib_a-strstr.o)
 .data          0x00000000        0x0 /usr/local/bin/../lib/gcc/arm-none-eabi/4.4.1/../../../../arm-none-eabi/lib/thumb2/libc.a(lib_a-strstr.o)
 .bss           0x00000000        0x0 /usr/local/bin/../lib/gcc/arm-none-eabi/4.4.1/../../../../arm-none-eabi/lib/thumb2/libc.a(lib_a-strstr.o)
 .text          0x00000000        0x0 /usr/local/bin/../lib/gcc/arm-none-eabi/4.4.1/../../../../arm-none-eabi/lib/thumb2/libc.a(lib_a-strtol.o)
 .data          0x00000000        0x0 /usr/local/bin/../lib/gcc/arm-none-eabi/4.4.1/../../../../arm-none-eabi/lib/thumb2/libc.a(lib_a-strtol.o)
 .bss           0x00000000        0x0 /usr/local/bin/../lib/gcc/arm-none-eabi/4.4.1/../../../../arm-none-eabi/lib/thumb2/libc.a(lib_a-strtol.o)
 .text._strtol_r
                0x00000000      0x124 /usr/local/bin/../lib/gcc/arm-none-eabi/4.4.1/../../../../arm-none-eabi/lib/thumb2/libc.a(lib_a-strtol.o)
 .text.strtol   0x00000000       0x1c /usr/local/bin/../lib/gcc/arm-none-eabi/4.4.1/../../../../arm-none-eabi/lib/thumb2/libc.a(lib_a-strtol.o)
 .text          0x00000000        0x0 /usr/local/bin/../lib/gcc/arm-none-eabi/4.4.1/../../../../arm-none-eabi/lib/thumb2/libc.a(lib_a-strtoul.o)
 .data          0x00000000        0x0 /usr/local/bin/../lib/gcc/arm-none-eabi/4.4.1/../../../../arm-none-eabi/lib/thumb2/libc.a(lib_a-strtoul.o)
 .bss           0x00000000        0x0 /usr/local/bin/../lib/gcc/arm-none-eabi/4.4.1/../../../../arm-none-eabi/lib/thumb2/libc.a(lib_a-strtoul.o)
 .text._strtoul_r
                0x00000000      0x100 /usr/local/bin/../lib/gcc/arm-none-eabi/4.4.1/../../../../arm-none-eabi/lib/thumb2/libc.a(lib_a-strtoul.o)
 .text.strtoul  0x00000000       0x1c /usr/local/bin/../lib/gcc/arm-none-eabi/4.4.1/../../../../arm-none-eabi/lib/thumb2/libc.a(lib_a-strtoul.o)
 .text          0x00000000        0x0 /usr/local/bin/../lib/gcc/arm-none-eabi/4.4.1/../../../../arm-none-eabi/lib/thumb2/libc.a(lib_a-strupr.o)
 .data          0x00000000        0x0 /usr/local/bin/../lib/gcc/arm-none-eabi/4.4.1/../../../../arm-none-eabi/lib/thumb2/libc.a(lib_a-strupr.o)
 .bss           0x00000000        0x0 /usr/local/bin/../lib/gcc/arm-none-eabi/4.4.1/../../../../arm-none-eabi/lib/thumb2/libc.a(lib_a-strupr.o)
 .text          0x00000000        0x0 /usr/local/bin/../lib/gcc/arm-none-eabi/4.4.1/../../../../arm-none-eabi/lib/thumb2/libc.a(lib_a-toupper.o)
 .data          0x00000000        0x0 /usr/local/bin/../lib/gcc/arm-none-eabi/4.4.1/../../../../arm-none-eabi/lib/thumb2/libc.a(lib_a-toupper.o)
 .bss           0x00000000        0x0 /usr/local/bin/../lib/gcc/arm-none-eabi/4.4.1/../../../../arm-none-eabi/lib/thumb2/libc.a(lib_a-toupper.o)
 .text.toupper  0x00000000       0x18 /usr/local/bin/../lib/gcc/arm-none-eabi/4.4.1/../../../../arm-none-eabi/lib/thumb2/libc.a(lib_a-toupper.o)
 .text          0x00000000        0x0 /usr/local/bin/../lib/gcc/arm-none-eabi/4.4.1/../../../../arm-none-eabi/lib/thumb2/libc.a(lib_a-ctype_.o)
 .data          0x00000000        0x0 /usr/local/bin/../lib/gcc/arm-none-eabi/4.4.1/../../../../arm-none-eabi/lib/thumb2/libc.a(lib_a-ctype_.o)
 .bss           0x00000000        0x0 /usr/local/bin/../lib/gcc/arm-none-eabi/4.4.1/../../../../arm-none-eabi/lib/thumb2/libc.a(lib_a-ctype_.o)
 .data.__ctype_ptr
                0x00000000        0x4 /usr/local/bin/../lib/gcc/arm-none-eabi/4.4.1/../../../../arm-none-eabi/lib/thumb2/libc.a(lib_a-ctype_.o)
 .text          0x00000000        0x0 /usr/local/bin/../lib/gcc/arm-none-eabi/4.4.1/../../../../arm-none-eabi/lib/thumb2/libc.a(lib_a-freer.o)
 .data          0x00000000        0x0 /usr/local/bin/../lib/gcc/arm-none-eabi/4.4.1/../../../../arm-none-eabi/lib/thumb2/libc.a(lib_a-freer.o)
 .bss           0x00000000        0x0 /usr/local/bin/../lib/gcc/arm-none-eabi/4.4.1/../../../../arm-none-eabi/lib/thumb2/libc.a(lib_a-freer.o)
 .text          0x00000000        0x0 /usr/local/bin/../lib/gcc/arm-none-eabi/4.4.1/../../../../arm-none-eabi/lib/thumb2/libc.a(lib_a-reent.o)
 .data          0x00000000        0x0 /usr/local/bin/../lib/gcc/arm-none-eabi/4.4.1/../../../../arm-none-eabi/lib/thumb2/libc.a(lib_a-reent.o)
 .bss           0x00000000        0x0 /usr/local/bin/../lib/gcc/arm-none-eabi/4.4.1/../../../../arm-none-eabi/lib/thumb2/libc.a(lib_a-reent.o)
 .text._wrapup_reent
                0x00000000       0x30 /usr/local/bin/../lib/gcc/arm-none-eabi/4.4.1/../../../../arm-none-eabi/lib/thumb2/libc.a(lib_a-reent.o)
 .text.cleanup_glue
                0x00000000       0x1a /usr/local/bin/../lib/gcc/arm-none-eabi/4.4.1/../../../../arm-none-eabi/lib/thumb2/libc.a(lib_a-reent.o)
 .text._reclaim_reent
                0x00000000       0xb4 /usr/local/bin/../lib/gcc/arm-none-eabi/4.4.1/../../../../arm-none-eabi/lib/thumb2/libc.a(lib_a-reent.o)
 .text          0x00000000        0x0 /usr/local/bin/../lib/gcc/arm-none-eabi/4.4.1/thumb2/crtend.o
 .data          0x00000000        0x0 /usr/local/bin/../lib/gcc/arm-none-eabi/4.4.1/thumb2/crtend.o
 .bss           0x00000000        0x0 /usr/local/bin/../lib/gcc/arm-none-eabi/4.4.1/thumb2/crtend.o
 .jcr           0x00000000        0x4 /usr/local/bin/../lib/gcc/arm-none-eabi/4.4.1/thumb2/crtend.o
 .text          0x00000000        0x0 /usr/local/bin/../lib/gcc/arm-none-eabi/4.4.1/thumb2/crtn.o
 .data          0x00000000        0x0 /usr/local/bin/../lib/gcc/arm-none-eabi/4.4.1/thumb2/crtn.o
 .bss           0x00000000        0x0 /usr/local/bin/../lib/gcc/arm-none-eabi/4.4.1/thumb2/crtn.o

Memory Configuration

Name             Origin             Length             Attributes
ram              0x20000c00         0x00004400         xrw
rom              0x08005000         0x0001b000         xr
*default*        0x00000000         0xffffffff

Linker script and memory map

LOAD /usr/local/bin/../lib/gcc/arm-none-eabi/4.4.1/thumb2/crti.o
LOAD /usr/local/bin/../lib/gcc/arm-none-eabi/4.4.1/thumb2/crtbegin.o
START GROUP
LOAD /usr/local/bin/../lib/gcc/arm-none-eabi/4.4.1/thumb2/libgcc.a
LOAD /usr/local/bin/../lib/gcc/arm-none-eabi/4.4.1/../../../../arm-none-eabi/lib/thumb2/libc.a
LOAD /usr/local/bin/../lib/gcc/arm-none-eabi/4.4.1/../../../../arm-none-eabi/lib/thumb2/libm.a
END GROUP
                0x20005000                PROVIDE (__msp_init, 0x20005000)
                0x08007424                PROVIDE (__exc_reset, _start)

.text           0x08005000     0x51d0
                0x08005000                _text = .
 *(.stm32.interrupt_vector)
 .stm32.interrupt_vector
                0x08005000       0xec build//Users/marcus/Dropbox/Studienarbeit/Sourcecode/StudienarbeitX/Library/libmaple/libmaple/stm32f1/performance/vector_table.o
                0x08005000                __stm32_vector_table
 *(.text .text.* .gnu.linkonce.t.*)
 .text          0x080050ec       0x30 /usr/local/bin/../lib/gcc/arm-none-eabi/4.4.1/thumb2/crtbegin.o
 .text.adc_set_extsel
                0x0800511c       0x10 build//Users/marcus/Dropbox/Studienarbeit/Sourcecode/StudienarbeitX/Library/libmaple/libmaple/adc.o
                0x0800511c                adc_set_extsel
 .text.adc_set_sample_rate
                0x0800512c       0x2e build//Users/marcus/Dropbox/Studienarbeit/Sourcecode/StudienarbeitX/Library/libmaple/libmaple/adc.o
                0x0800512c                adc_set_sample_rate
 .text.adc_init
                0x0800515a       0x14 build//Users/marcus/Dropbox/Studienarbeit/Sourcecode/StudienarbeitX/Library/libmaple/libmaple/adc.o
                0x0800515a                adc_init
 *fill*         0x0800516e        0x2 00
 .text.__irq_exti0
                0x08005170       0x20 build//Users/marcus/Dropbox/Studienarbeit/Sourcecode/StudienarbeitX/Library/libmaple/libmaple/exti.o
                0x08005170                __irq_exti0
 .text.__irq_exti1
                0x08005190       0x20 build//Users/marcus/Dropbox/Studienarbeit/Sourcecode/StudienarbeitX/Library/libmaple/libmaple/exti.o
                0x08005190                __irq_exti1
 .text.__irq_exti2
                0x080051b0       0x20 build//Users/marcus/Dropbox/Studienarbeit/Sourcecode/StudienarbeitX/Library/libmaple/libmaple/exti.o
                0x080051b0                __irq_exti2
 .text.__irq_exti3
                0x080051d0       0x20 build//Users/marcus/Dropbox/Studienarbeit/Sourcecode/StudienarbeitX/Library/libmaple/libmaple/exti.o
                0x080051d0                __irq_exti3
 .text.__irq_exti4
                0x080051f0       0x20 build//Users/marcus/Dropbox/Studienarbeit/Sourcecode/StudienarbeitX/Library/libmaple/libmaple/exti.o
                0x080051f0                __irq_exti4
 .text.__irq_exti9_5
                0x08005210       0x38 build//Users/marcus/Dropbox/Studienarbeit/Sourcecode/StudienarbeitX/Library/libmaple/libmaple/exti.o
                0x08005210                __irq_exti9_5
 .text.__irq_exti15_10
                0x08005248       0x38 build//Users/marcus/Dropbox/Studienarbeit/Sourcecode/StudienarbeitX/Library/libmaple/libmaple/exti.o
                0x08005248                __irq_exti15_10
 .text.flash_set_latency
                0x08005280       0x14 build//Users/marcus/Dropbox/Studienarbeit/Sourcecode/StudienarbeitX/Library/libmaple/libmaple/flash.o
                0x08005280                flash_set_latency
 .text.gpio_init
                0x08005294       0x14 build//Users/marcus/Dropbox/Studienarbeit/Sourcecode/StudienarbeitX/Library/libmaple/libmaple/gpio.o
                0x08005294                gpio_init
 .text.nvic_irq_set_priority
                0x080052a8       0x2c build//Users/marcus/Dropbox/Studienarbeit/Sourcecode/StudienarbeitX/Library/libmaple/libmaple/nvic.o
                0x080052a8                nvic_irq_set_priority
 .text.nvic_set_vector_table
                0x080052d4       0x14 build//Users/marcus/Dropbox/Studienarbeit/Sourcecode/StudienarbeitX/Library/libmaple/libmaple/nvic.o
                0x080052d4                nvic_set_vector_table
 .text.nvic_init
                0x080052e8       0x24 build//Users/marcus/Dropbox/Studienarbeit/Sourcecode/StudienarbeitX/Library/libmaple/libmaple/nvic.o
                0x080052e8                nvic_init
 .text.nvic_sys_reset
                0x0800530c       0x20 build//Users/marcus/Dropbox/Studienarbeit/Sourcecode/StudienarbeitX/Library/libmaple/libmaple/nvic.o
                0x0800530c                nvic_sys_reset
 .text.rcc_dev_clk
                0x0800532c        0xc build//Users/marcus/Dropbox/Studienarbeit/Sourcecode/StudienarbeitX/Library/libmaple/libmaple/rcc.o
                0x0800532c                rcc_dev_clk
 .text.rcc_switch_sysclk
                0x08005338       0x24 build//Users/marcus/Dropbox/Studienarbeit/Sourcecode/StudienarbeitX/Library/libmaple/libmaple/rcc.o
                0x08005338                rcc_switch_sysclk
 .text.rcc_clk_reg
                0x0800535c        0xc build//Users/marcus/Dropbox/Studienarbeit/Sourcecode/StudienarbeitX/Library/libmaple/libmaple/rcc.o
 .text.rcc_clk_on_mask
                0x08005368        0xa build//Users/marcus/Dropbox/Studienarbeit/Sourcecode/StudienarbeitX/Library/libmaple/libmaple/rcc.o
 .text.rcc_turn_on_clk
                0x08005372       0x1a build//Users/marcus/Dropbox/Studienarbeit/Sourcecode/StudienarbeitX/Library/libmaple/libmaple/rcc.o
                0x08005372                rcc_turn_on_clk
 .text.rcc_turn_off_clk
                0x0800538c       0x1a build//Users/marcus/Dropbox/Studienarbeit/Sourcecode/StudienarbeitX/Library/libmaple/libmaple/rcc.o
                0x0800538c                rcc_turn_off_clk
 .text.rcc_is_clk_on
                0x080053a6       0x1a build//Users/marcus/Dropbox/Studienarbeit/Sourcecode/StudienarbeitX/Library/libmaple/libmaple/rcc.o
                0x080053a6                rcc_is_clk_on
 .text.rcc_is_clk_ready
                0x080053c0       0x16 build//Users/marcus/Dropbox/Studienarbeit/Sourcecode/StudienarbeitX/Library/libmaple/libmaple/rcc.o
                0x080053c0                rcc_is_clk_ready
 .text.spi_tx   0x080053d6       0x38 build//Users/marcus/Dropbox/Studienarbeit/Sourcecode/StudienarbeitX/Library/libmaple/libmaple/spi.o
                0x080053d6                spi_tx
 .text.spi_init
                0x0800540e       0x14 build//Users/marcus/Dropbox/Studienarbeit/Sourcecode/StudienarbeitX/Library/libmaple/libmaple/spi.o
                0x0800540e                spi_init
 .text.bb_peri_set_bit
                0x08005422        0xe build//Users/marcus/Dropbox/Studienarbeit/Sourcecode/StudienarbeitX/Library/libmaple/libmaple/spi.o
 .text.spi_peripheral_enable
                0x08005430        0xa build//Users/marcus/Dropbox/Studienarbeit/Sourcecode/StudienarbeitX/Library/libmaple/libmaple/spi.o
                0x08005430                spi_peripheral_enable
 .text.spi_peripheral_disable
                0x0800543a        0xa build//Users/marcus/Dropbox/Studienarbeit/Sourcecode/StudienarbeitX/Library/libmaple/libmaple/spi.o
                0x0800543a                spi_peripheral_disable
 .text.spi_reconfigure
                0x08005444       0x22 build//Users/marcus/Dropbox/Studienarbeit/Sourcecode/StudienarbeitX/Library/libmaple/libmaple/spi.o
 .text.spi_slave_enable
                0x08005466        0x8 build//Users/marcus/Dropbox/Studienarbeit/Sourcecode/StudienarbeitX/Library/libmaple/libmaple/spi.o
                0x08005466                spi_slave_enable
 .text.spi_master_enable
                0x0800546e        0xc build//Users/marcus/Dropbox/Studienarbeit/Sourcecode/StudienarbeitX/Library/libmaple/libmaple/spi.o
                0x0800546e                spi_master_enable
 *fill*         0x0800547a        0x2 00
 .text.systick_enable
                0x0800547c        0xc build//Users/marcus/Dropbox/Studienarbeit/Sourcecode/StudienarbeitX/Library/libmaple/libmaple/systick.o
                0x0800547c                systick_enable
 .text.systick_init
                0x08005488        0xc build//Users/marcus/Dropbox/Studienarbeit/Sourcecode/StudienarbeitX/Library/libmaple/libmaple/systick.o
                0x08005488                systick_init
 .text.__exc_systick
                0x08005494       0x1c build//Users/marcus/Dropbox/Studienarbeit/Sourcecode/StudienarbeitX/Library/libmaple/libmaple/systick.o
                0x08005494                __exc_systick
 .text.timer_oc_set_mode
                0x080054b0       0x38 build//Users/marcus/Dropbox/Studienarbeit/Sourcecode/StudienarbeitX/Library/libmaple/libmaple/timer.o
 .text.timer_foreach
                0x080054e8       0x30 build//Users/marcus/Dropbox/Studienarbeit/Sourcecode/StudienarbeitX/Library/libmaple/libmaple/timer.o
                0x080054e8                timer_foreach
 .text.timer_disable
                0x08005518       0x12 build//Users/marcus/Dropbox/Studienarbeit/Sourcecode/StudienarbeitX/Library/libmaple/libmaple/timer.o
                0x08005518                timer_disable
 *fill*         0x0800552a        0x2 00
 .text.timer_has_cc_channel
                0x0800552c       0x50 build//Users/marcus/Dropbox/Studienarbeit/Sourcecode/StudienarbeitX/Library/libmaple/libmaple/timer.o
                0x0800552c                timer_has_cc_channel
 .text.timer_init
                0x0800557c       0x14 build//Users/marcus/Dropbox/Studienarbeit/Sourcecode/StudienarbeitX/Library/libmaple/libmaple/timer.o
                0x0800557c                timer_init
 .text.bb_perip
                0x08005590        0xc build//Users/marcus/Dropbox/Studienarbeit/Sourcecode/StudienarbeitX/Library/libmaple/libmaple/timer.o
 .text.timer_disable_irq
                0x0800559c       0x10 build//Users/marcus/Dropbox/Studienarbeit/Sourcecode/StudienarbeitX/Library/libmaple/libmaple/timer.o
 .text.timer_detach_interrupt
                0x080055ac       0x14 build//Users/marcus/Dropbox/Studienarbeit/Sourcecode/StudienarbeitX/Library/libmaple/libmaple/timer.o
                0x080055ac                timer_detach_interrupt
 .text.timer_cc_enable
                0x080055c0       0x14 build//Users/marcus/Dropbox/Studienarbeit/Sourcecode/StudienarbeitX/Library/libmaple/libmaple/timer.o
 .text.timer_set_mode
                0x080055d4       0x90 build//Users/marcus/Dropbox/Studienarbeit/Sourcecode/StudienarbeitX/Library/libmaple/libmaple/timer.o
                0x080055d4                timer_set_mode
 .text.usart_disable
                0x08005664       0x22 build//Users/marcus/Dropbox/Studienarbeit/Sourcecode/StudienarbeitX/Library/libmaple/libmaple/usart.o
                0x08005664                usart_disable
 .text.usart_tx
                0x08005686       0x1c build//Users/marcus/Dropbox/Studienarbeit/Sourcecode/StudienarbeitX/Library/libmaple/libmaple/usart.o
                0x08005686                usart_tx
 .text.usart_putudec
                0x080056a2       0x44 build//Users/marcus/Dropbox/Studienarbeit/Sourcecode/StudienarbeitX/Library/libmaple/libmaple/usart.o
                0x080056a2                usart_putudec
 *fill*         0x080056e6        0x2 00
 .text.usart_init
                0x080056e8       0x44 build//Users/marcus/Dropbox/Studienarbeit/Sourcecode/StudienarbeitX/Library/libmaple/libmaple/usart.o
                0x080056e8                usart_init
 .text._usart_clock_freq
                0x0800572c       0x24 build//Users/marcus/Dropbox/Studienarbeit/Sourcecode/StudienarbeitX/Library/libmaple/libmaple/usart_private.o
                0x0800572c                _usart_clock_freq
 .text.usart_putc
                0x08005750       0x1a build//Users/marcus/Dropbox/Studienarbeit/Sourcecode/StudienarbeitX/Library/libmaple/libmaple/util.o
 .text.usart_putstr
                0x0800576a       0x1a build//Users/marcus/Dropbox/Studienarbeit/Sourcecode/StudienarbeitX/Library/libmaple/libmaple/util.o
 .text.T.10     0x08005784       0x16 build//Users/marcus/Dropbox/Studienarbeit/Sourcecode/StudienarbeitX/Library/libmaple/libmaple/util.o
 *fill*         0x0800579a        0x2 00
 .text.throb    0x0800579c       0x4c build//Users/marcus/Dropbox/Studienarbeit/Sourcecode/StudienarbeitX/Library/libmaple/libmaple/util.o
                0x0800579c                throb
 .text.__error  0x080057e8       0x14 build//Users/marcus/Dropbox/Studienarbeit/Sourcecode/StudienarbeitX/Library/libmaple/libmaple/util.o
                0x080057e8                __error
 .text._fail    0x080057fc       0x64 build//Users/marcus/Dropbox/Studienarbeit/Sourcecode/StudienarbeitX/Library/libmaple/libmaple/util.o
                0x080057fc                _fail
 .text.i2c_start_condition
                0x08005860       0x14 build//Users/marcus/Dropbox/Studienarbeit/Sourcecode/StudienarbeitX/Library/libmaple/libmaple/i2c.o
 .text.i2c_stop_condition
                0x08005874       0x1c build//Users/marcus/Dropbox/Studienarbeit/Sourcecode/StudienarbeitX/Library/libmaple/libmaple/i2c.o
 .text.i2c_disable_irq
                0x08005890        0xc build//Users/marcus/Dropbox/Studienarbeit/Sourcecode/StudienarbeitX/Library/libmaple/libmaple/i2c.o
 .text.i2c_disable_ack
                0x0800589c        0xc build//Users/marcus/Dropbox/Studienarbeit/Sourcecode/StudienarbeitX/Library/libmaple/libmaple/i2c.o
 .text.i2c_write
                0x080058a8        0x6 build//Users/marcus/Dropbox/Studienarbeit/Sourcecode/StudienarbeitX/Library/libmaple/libmaple/i2c.o
 .text._i2c_irq_error_handler
                0x080058ae       0x2c build//Users/marcus/Dropbox/Studienarbeit/Sourcecode/StudienarbeitX/Library/libmaple/libmaple/i2c.o
                0x080058ae                _i2c_irq_error_handler
 .text.i2c_enable_irq
                0x080058da       0x14 build//Users/marcus/Dropbox/Studienarbeit/Sourcecode/StudienarbeitX/Library/libmaple/libmaple/i2c.o
 *fill*         0x080058ee        0x2 00
 .text._i2c_irq_handler
                0x080058f0      0x170 build//Users/marcus/Dropbox/Studienarbeit/Sourcecode/StudienarbeitX/Library/libmaple/libmaple/i2c.o
                0x080058f0                _i2c_irq_handler
 .text          0x08005a60       0x60 build//Users/marcus/Dropbox/Studienarbeit/Sourcecode/StudienarbeitX/Library/libmaple/libmaple/exc.o
                0x08005a60                __exc_nmi
                0x08005a64                __exc_hardfault
                0x08005a68                __exc_memmanage
                0x08005a6c                __exc_busfault
                0x08005a70                __exc_usagefault
 .text.usb_clear_ctr_rx
                0x08005ac0       0x18 build//Users/marcus/Dropbox/Studienarbeit/Sourcecode/StudienarbeitX/Library/libmaple/libmaple/usb/stm32f1/usb.o
 .text.usb_clear_ctr_tx
                0x08005ad8       0x18 build//Users/marcus/Dropbox/Studienarbeit/Sourcecode/StudienarbeitX/Library/libmaple/libmaple/usb/stm32f1/usb.o
 .text.usb_resume_init
                0x08005af0       0x1c build//Users/marcus/Dropbox/Studienarbeit/Sourcecode/StudienarbeitX/Library/libmaple/libmaple/usb/stm32f1/usb.o
 .text.usb_resume
                0x08005b0c       0x90 build//Users/marcus/Dropbox/Studienarbeit/Sourcecode/StudienarbeitX/Library/libmaple/libmaple/usb/stm32f1/usb.o
 .text.handle_in0
                0x08005b9c        0x4 build//Users/marcus/Dropbox/Studienarbeit/Sourcecode/StudienarbeitX/Library/libmaple/libmaple/usb/stm32f1/usb.o
 .text.usb_init_usblib
                0x08005ba0       0x48 build//Users/marcus/Dropbox/Studienarbeit/Sourcecode/StudienarbeitX/Library/libmaple/libmaple/usb/stm32f1/usb.o
                0x08005ba0                usb_init_usblib
 .text.set_rx_tx_status0
                0x08005be8       0x38 build//Users/marcus/Dropbox/Studienarbeit/Sourcecode/StudienarbeitX/Library/libmaple/libmaple/usb/stm32f1/usb.o
 .text.__irq_usb_lp_can_rx0
                0x08005c20      0x198 build//Users/marcus/Dropbox/Studienarbeit/Sourcecode/StudienarbeitX/Library/libmaple/libmaple/usb/stm32f1/usb.o
                0x08005c20                __irq_usb_lp_can_rx0
 .text.usb_pma_ptr
                0x08005db8        0xc build//Users/marcus/Dropbox/Studienarbeit/Sourcecode/StudienarbeitX/Library/libmaple/libmaple/usb/stm32f1/usb_reg_map.o
 .text.usb_copy_to_pma
                0x08005dc4       0x44 build//Users/marcus/Dropbox/Studienarbeit/Sourcecode/StudienarbeitX/Library/libmaple/libmaple/usb/stm32f1/usb_reg_map.o
                0x08005dc4                usb_copy_to_pma
 .text.usb_copy_from_pma
                0x08005e08       0x30 build//Users/marcus/Dropbox/Studienarbeit/Sourcecode/StudienarbeitX/Library/libmaple/libmaple/usb/stm32f1/usb_reg_map.o
                0x08005e08                usb_copy_from_pma
 .text.usb_set_ep_rx_count
                0x08005e38       0x40 build//Users/marcus/Dropbox/Studienarbeit/Sourcecode/StudienarbeitX/Library/libmaple/libmaple/usb/stm32f1/usb_reg_map.o
                0x08005e38                usb_set_ep_rx_count
 .text.gpio_write_bit
                0x08005e78       0x18 build//Users/marcus/Dropbox/Studienarbeit/Sourcecode/StudienarbeitX/Library/libmaple/libmaple/usb/stm32f1/usb_cdcacm.o
 .text.usb_set_ep_rx_stat
                0x08005e90       0x24 build//Users/marcus/Dropbox/Studienarbeit/Sourcecode/StudienarbeitX/Library/libmaple/libmaple/usb/stm32f1/usb_cdcacm.o
 .text.usb_set_ep_tx_stat
                0x08005eb4       0x24 build//Users/marcus/Dropbox/Studienarbeit/Sourcecode/StudienarbeitX/Library/libmaple/libmaple/usb/stm32f1/usb_cdcacm.o
 .text.usb_set_ep_type
                0x08005ed8       0x1c build//Users/marcus/Dropbox/Studienarbeit/Sourcecode/StudienarbeitX/Library/libmaple/libmaple/usb/stm32f1/usb_cdcacm.o
 .text.usb_btable_ptr
                0x08005ef4       0x18 build//Users/marcus/Dropbox/Studienarbeit/Sourcecode/StudienarbeitX/Library/libmaple/libmaple/usb/stm32f1/usb_cdcacm.o
 .text.usb_set_ep_tx_addr
                0x08005f0c       0x12 build//Users/marcus/Dropbox/Studienarbeit/Sourcecode/StudienarbeitX/Library/libmaple/libmaple/usb/stm32f1/usb_cdcacm.o
 .text.usb_set_ep_rx_addr
                0x08005f1e       0x14 build//Users/marcus/Dropbox/Studienarbeit/Sourcecode/StudienarbeitX/Library/libmaple/libmaple/usb/stm32f1/usb_cdcacm.o
 *fill*         0x08005f32        0x2 00
 .text.usb_cdcacm_data_available
                0x08005f34        0xc build//Users/marcus/Dropbox/Studienarbeit/Sourcecode/StudienarbeitX/Library/libmaple/libmaple/usb/stm32f1/usb_cdcacm.o
                0x08005f34                usb_cdcacm_data_available
 .text.vcomDataTxCb
                0x08005f40        0xc build//Users/marcus/Dropbox/Studienarbeit/Sourcecode/StudienarbeitX/Library/libmaple/libmaple/usb/stm32f1/usb_cdcacm.o
 .text.vcomGetSetLineCoding
                0x08005f4c       0x18 build//Users/marcus/Dropbox/Studienarbeit/Sourcecode/StudienarbeitX/Library/libmaple/libmaple/usb/stm32f1/usb_cdcacm.o
 .text.usbDataSetup
                0x08005f64       0x40 build//Users/marcus/Dropbox/Studienarbeit/Sourcecode/StudienarbeitX/Library/libmaple/libmaple/usb/stm32f1/usb_cdcacm.o
 .text.usbNoDataSetup
                0x08005fa4       0x64 build//Users/marcus/Dropbox/Studienarbeit/Sourcecode/StudienarbeitX/Library/libmaple/libmaple/usb/stm32f1/usb_cdcacm.o
 .text.usbGetInterfaceSetting
                0x08006008        0xe build//Users/marcus/Dropbox/Studienarbeit/Sourcecode/StudienarbeitX/Library/libmaple/libmaple/usb/stm32f1/usb_cdcacm.o
 *fill*         0x08006016        0x2 00
 .text.usbSetConfiguration
                0x08006018       0x1c build//Users/marcus/Dropbox/Studienarbeit/Sourcecode/StudienarbeitX/Library/libmaple/libmaple/usb/stm32f1/usb_cdcacm.o
 .text.usbSetDeviceAddress
                0x08006034       0x10 build//Users/marcus/Dropbox/Studienarbeit/Sourcecode/StudienarbeitX/Library/libmaple/libmaple/usb/stm32f1/usb_cdcacm.o
 .text.usbGetStringDescriptor
                0x08006044       0x20 build//Users/marcus/Dropbox/Studienarbeit/Sourcecode/StudienarbeitX/Library/libmaple/libmaple/usb/stm32f1/usb_cdcacm.o
 .text.usbGetConfigDescriptor
                0x08006064        0xc build//Users/marcus/Dropbox/Studienarbeit/Sourcecode/StudienarbeitX/Library/libmaple/libmaple/usb/stm32f1/usb_cdcacm.o
 .text.usbGetDeviceDescriptor
                0x08006070        0xc build//Users/marcus/Dropbox/Studienarbeit/Sourcecode/StudienarbeitX/Library/libmaple/libmaple/usb/stm32f1/usb_cdcacm.o
 .text.usb_cdcacm_enable
                0x0800607c       0x34 build//Users/marcus/Dropbox/Studienarbeit/Sourcecode/StudienarbeitX/Library/libmaple/libmaple/usb/stm32f1/usb_cdcacm.o
                0x0800607c                usb_cdcacm_enable
 .text.usbInit  0x080060b0       0x44 build//Users/marcus/Dropbox/Studienarbeit/Sourcecode/StudienarbeitX/Library/libmaple/libmaple/usb/stm32f1/usb_cdcacm.o
 .text.wait_reset
                0x080060f4       0x10 build//Users/marcus/Dropbox/Studienarbeit/Sourcecode/StudienarbeitX/Library/libmaple/libmaple/usb/stm32f1/usb_cdcacm.o
 .text.usbReset
                0x08006104      0x104 build//Users/marcus/Dropbox/Studienarbeit/Sourcecode/StudienarbeitX/Library/libmaple/libmaple/usb/stm32f1/usb_cdcacm.o
 .text.vcomDataRxCb
                0x08006208       0xbc build//Users/marcus/Dropbox/Studienarbeit/Sourcecode/StudienarbeitX/Library/libmaple/libmaple/usb/stm32f1/usb_cdcacm.o
 .text.usb_cdcacm_tx
                0x080062c4       0x44 build//Users/marcus/Dropbox/Studienarbeit/Sourcecode/StudienarbeitX/Library/libmaple/libmaple/usb/stm32f1/usb_cdcacm.o
                0x080062c4                usb_cdcacm_tx
 .text.Standard_GetConfiguration
                0x08006308       0x28 build//Users/marcus/Dropbox/Studienarbeit/Sourcecode/StudienarbeitX/Library/libmaple/libmaple/usb/usb_lib/usb_core.o
                0x08006308                Standard_GetConfiguration
 .text.Standard_SetConfiguration
                0x08006330       0x38 build//Users/marcus/Dropbox/Studienarbeit/Sourcecode/StudienarbeitX/Library/libmaple/libmaple/usb/usb_lib/usb_core.o
                0x08006330                Standard_SetConfiguration
 .text.Standard_GetInterface
                0x08006368       0x28 build//Users/marcus/Dropbox/Studienarbeit/Sourcecode/StudienarbeitX/Library/libmaple/libmaple/usb/usb_lib/usb_core.o
                0x08006368                Standard_GetInterface
 .text.Standard_SetInterface
                0x08006390       0x48 build//Users/marcus/Dropbox/Studienarbeit/Sourcecode/StudienarbeitX/Library/libmaple/libmaple/usb/usb_lib/usb_core.o
                0x08006390                Standard_SetInterface
 .text.Standard_GetStatus
                0x080063d8       0xa4 build//Users/marcus/Dropbox/Studienarbeit/Sourcecode/StudienarbeitX/Library/libmaple/libmaple/usb/usb_lib/usb_core.o
                0x080063d8                Standard_GetStatus
 .text.Standard_SetEndPointFeature
                0x0800647c       0x84 build//Users/marcus/Dropbox/Studienarbeit/Sourcecode/StudienarbeitX/Library/libmaple/libmaple/usb/usb_lib/usb_core.o
                0x0800647c                Standard_SetEndPointFeature
 .text.Standard_SetDeviceFeature
                0x08006500       0x24 build//Users/marcus/Dropbox/Studienarbeit/Sourcecode/StudienarbeitX/Library/libmaple/libmaple/usb/usb_lib/usb_core.o
                0x08006500                Standard_SetDeviceFeature
 .text.Standard_GetDescriptorData
                0x08006524       0x1c build//Users/marcus/Dropbox/Studienarbeit/Sourcecode/StudienarbeitX/Library/libmaple/libmaple/usb/usb_lib/usb_core.o
                0x08006524                Standard_GetDescriptorData
 .text.SetDeviceAddress
                0x08006540       0x44 build//Users/marcus/Dropbox/Studienarbeit/Sourcecode/StudienarbeitX/Library/libmaple/libmaple/usb/usb_lib/usb_core.o
                0x08006540                SetDeviceAddress
 .text.NOP_Process
                0x08006584        0x2 build//Users/marcus/Dropbox/Studienarbeit/Sourcecode/StudienarbeitX/Library/libmaple/libmaple/usb/usb_lib/usb_core.o
                0x08006584                NOP_Process
 *fill*         0x08006586        0x2 00
 .text.Post0_Process
                0x08006588       0x44 build//Users/marcus/Dropbox/Studienarbeit/Sourcecode/StudienarbeitX/Library/libmaple/libmaple/usb/usb_lib/usb_core.o
                0x08006588                Post0_Process
 .text.Out0_Process
                0x080065cc       0xd4 build//Users/marcus/Dropbox/Studienarbeit/Sourcecode/StudienarbeitX/Library/libmaple/libmaple/usb/usb_lib/usb_core.o
                0x080065cc                Out0_Process
 .text.DataStageIn
                0x080066a0       0xac build//Users/marcus/Dropbox/Studienarbeit/Sourcecode/StudienarbeitX/Library/libmaple/libmaple/usb/usb_lib/usb_core.o
 .text.In0_Process
                0x0800674c       0x60 build//Users/marcus/Dropbox/Studienarbeit/Sourcecode/StudienarbeitX/Library/libmaple/libmaple/usb/usb_lib/usb_core.o
                0x0800674c                In0_Process
 .text.Standard_ClearFeature
                0x080067ac       0xd4 build//Users/marcus/Dropbox/Studienarbeit/Sourcecode/StudienarbeitX/Library/libmaple/libmaple/usb/usb_lib/usb_core.o
                0x080067ac                Standard_ClearFeature
 .text.Setup0_Process
                0x08006880      0x304 build//Users/marcus/Dropbox/Studienarbeit/Sourcecode/StudienarbeitX/Library/libmaple/libmaple/usb/usb_lib/usb_core.o
                0x08006880                Setup0_Process
 .text.UserToPMABufferCopy
                0x08006b84       0x2e build//Users/marcus/Dropbox/Studienarbeit/Sourcecode/StudienarbeitX/Library/libmaple/libmaple/usb/usb_lib/usb_mem.o
                0x08006b84                UserToPMABufferCopy
 .text.PMAToUserBufferCopy
                0x08006bb2       0x24 build//Users/marcus/Dropbox/Studienarbeit/Sourcecode/StudienarbeitX/Library/libmaple/libmaple/usb/usb_lib/usb_mem.o
                0x08006bb2                PMAToUserBufferCopy
 .text.SetEPTxStatus
                0x08006bd6       0x2c build//Users/marcus/Dropbox/Studienarbeit/Sourcecode/StudienarbeitX/Library/libmaple/libmaple/usb/usb_lib/usb_regs.o
                0x08006bd6                SetEPTxStatus
 .text.ClearDTOG_RX
                0x08006c02       0x24 build//Users/marcus/Dropbox/Studienarbeit/Sourcecode/StudienarbeitX/Library/libmaple/libmaple/usb/usb_lib/usb_regs.o
                0x08006c02                ClearDTOG_RX
 .text.ClearDTOG_TX
                0x08006c26       0x24 build//Users/marcus/Dropbox/Studienarbeit/Sourcecode/StudienarbeitX/Library/libmaple/libmaple/usb/usb_lib/usb_regs.o
                0x08006c26                ClearDTOG_TX
 *fill*         0x08006c4a        0x2 00
 .text.GetEPTxAddr
                0x08006c4c       0x1c build//Users/marcus/Dropbox/Studienarbeit/Sourcecode/StudienarbeitX/Library/libmaple/libmaple/usb/usb_lib/usb_regs.o
                0x08006c4c                GetEPTxAddr
 .text.GetEPRxAddr
                0x08006c68       0x1c build//Users/marcus/Dropbox/Studienarbeit/Sourcecode/StudienarbeitX/Library/libmaple/libmaple/usb/usb_lib/usb_regs.o
                0x08006c68                GetEPRxAddr
 .text.SetEPTxCount
                0x08006c84       0x1c build//Users/marcus/Dropbox/Studienarbeit/Sourcecode/StudienarbeitX/Library/libmaple/libmaple/usb/usb_lib/usb_regs.o
                0x08006c84                SetEPTxCount
 .text.SetEPRxCount
                0x08006ca0       0x40 build//Users/marcus/Dropbox/Studienarbeit/Sourcecode/StudienarbeitX/Library/libmaple/libmaple/usb/usb_lib/usb_regs.o
                0x08006ca0                SetEPRxCount
 .text.ByteSwap
                0x08006ce0        0xa build//Users/marcus/Dropbox/Studienarbeit/Sourcecode/StudienarbeitX/Library/libmaple/libmaple/usb/usb_lib/usb_regs.o
                0x08006ce0                ByteSwap
 .text          0x08006cea        0x2 build//Users/marcus/Dropbox/Studienarbeit/Sourcecode/StudienarbeitX/Library/libmaple/libmaple/stm32f1/performance/isrs.o
                0x08006cea                __irq_rcc
                0x08006cea                __exc_debug_monitor
                0x08006cea                __exc_svc
                0x08006cea                __irq_adc
                0x08006cea                __irq_can_rx1
                0x08006cea                __irq_spi2
                0x08006cea                __irq_can_sce
                0x08006cea                __irq_pvd
                0x08006cea                __irq_tamper
                0x08006cea                __default_handler
                0x08006cea                __irq_wwdg
                0x08006cea                __stm32reservedexception10
                0x08006cea                __irq_flash
                0x08006cea                __stm32reservedexception13
                0x08006cea                __irq_rtc
                0x08006cea                __irq_spi1
                0x08006cea                __stm32reservedexception7
                0x08006cea                __irq_usb_hp_can_tx
                0x08006cea                __irq_rtcalarm
                0x08006cea                __stm32reservedexception8
                0x08006cea                __exc_pendsv
                0x08006cea                __irq_usbwakeup
                0x08006cea                __stm32reservedexception9
 .text.adc_foreach
                0x08006cec       0x1c build//Users/marcus/Dropbox/Studienarbeit/Sourcecode/StudienarbeitX/Library/libmaple/libmaple/stm32f1/adc.o
                0x08006cec                adc_foreach
 .text.adc_set_prescaler
                0x08006d08        0x8 build//Users/marcus/Dropbox/Studienarbeit/Sourcecode/StudienarbeitX/Library/libmaple/libmaple/stm32f1/adc.o
                0x08006d08                adc_set_prescaler
 .text.bb_perip
                0x08006d10        0xc build//Users/marcus/Dropbox/Studienarbeit/Sourcecode/StudienarbeitX/Library/libmaple/libmaple/stm32f1/adc.o
 .text.adc_calibrate
                0x08006d1c       0x2e build//Users/marcus/Dropbox/Studienarbeit/Sourcecode/StudienarbeitX/Library/libmaple/libmaple/stm32f1/adc.o
                0x08006d1c                adc_calibrate
 .text.adc_enable_single_swstart
                0x08006d4a       0x36 build//Users/marcus/Dropbox/Studienarbeit/Sourcecode/StudienarbeitX/Library/libmaple/libmaple/stm32f1/adc.o
                0x08006d4a                adc_enable_single_swstart
 .text.dma_clear_isr_bits
                0x08006d80       0x10 build//Users/marcus/Dropbox/Studienarbeit/Sourcecode/StudienarbeitX/Library/libmaple/libmaple/stm32f1/dma.o
 .text.__irq_dma1_channel1
                0x08006d90       0x20 build//Users/marcus/Dropbox/Studienarbeit/Sourcecode/StudienarbeitX/Library/libmaple/libmaple/stm32f1/dma.o
                0x08006d90                __irq_dma1_channel1
 .text.__irq_dma1_channel2
                0x08006db0       0x20 build//Users/marcus/Dropbox/Studienarbeit/Sourcecode/StudienarbeitX/Library/libmaple/libmaple/stm32f1/dma.o
                0x08006db0                __irq_dma1_channel2
 .text.__irq_dma1_channel3
                0x08006dd0       0x20 build//Users/marcus/Dropbox/Studienarbeit/Sourcecode/StudienarbeitX/Library/libmaple/libmaple/stm32f1/dma.o
                0x08006dd0                __irq_dma1_channel3
 .text.__irq_dma1_channel4
                0x08006df0       0x20 build//Users/marcus/Dropbox/Studienarbeit/Sourcecode/StudienarbeitX/Library/libmaple/libmaple/stm32f1/dma.o
                0x08006df0                __irq_dma1_channel4
 .text.__irq_dma1_channel5
                0x08006e10       0x20 build//Users/marcus/Dropbox/Studienarbeit/Sourcecode/StudienarbeitX/Library/libmaple/libmaple/stm32f1/dma.o
                0x08006e10                __irq_dma1_channel5
 .text.__irq_dma1_channel6
                0x08006e30       0x20 build//Users/marcus/Dropbox/Studienarbeit/Sourcecode/StudienarbeitX/Library/libmaple/libmaple/stm32f1/dma.o
                0x08006e30                __irq_dma1_channel6
 .text.__irq_dma1_channel7
                0x08006e50       0x20 build//Users/marcus/Dropbox/Studienarbeit/Sourcecode/StudienarbeitX/Library/libmaple/libmaple/stm32f1/dma.o
                0x08006e50                __irq_dma1_channel7
 .text.gpio_set_mode
                0x08006e70       0x56 build//Users/marcus/Dropbox/Studienarbeit/Sourcecode/StudienarbeitX/Library/libmaple/libmaple/stm32f1/gpio.o
                0x08006e70                gpio_set_mode
 .text.afio_init
                0x08006ec6       0x12 build//Users/marcus/Dropbox/Studienarbeit/Sourcecode/StudienarbeitX/Library/libmaple/libmaple/stm32f1/gpio.o
                0x08006ec6                afio_init
 .text.gpio_init_all
                0x08006ed8       0x30 build//Users/marcus/Dropbox/Studienarbeit/Sourcecode/StudienarbeitX/Library/libmaple/libmaple/stm32f1/gpio.o
                0x08006ed8                gpio_init_all
 .text._i2c_irq_priority_fixup
                0x08006f08       0x1c build//Users/marcus/Dropbox/Studienarbeit/Sourcecode/StudienarbeitX/Library/libmaple/libmaple/stm32f1/i2c.o
                0x08006f08                _i2c_irq_priority_fixup
 .text.__irq_i2c2_er
                0x08006f24        0xc build//Users/marcus/Dropbox/Studienarbeit/Sourcecode/StudienarbeitX/Library/libmaple/libmaple/stm32f1/i2c.o
                0x08006f24                __irq_i2c2_er
 .text.__irq_i2c1_er
                0x08006f30        0xc build//Users/marcus/Dropbox/Studienarbeit/Sourcecode/StudienarbeitX/Library/libmaple/libmaple/stm32f1/i2c.o
                0x08006f30                __irq_i2c1_er
 .text.__irq_i2c2_ev
                0x08006f3c        0xc build//Users/marcus/Dropbox/Studienarbeit/Sourcecode/StudienarbeitX/Library/libmaple/libmaple/stm32f1/i2c.o
                0x08006f3c                __irq_i2c2_ev
 .text.__irq_i2c1_ev
                0x08006f48        0xc build//Users/marcus/Dropbox/Studienarbeit/Sourcecode/StudienarbeitX/Library/libmaple/libmaple/stm32f1/i2c.o
                0x08006f48                __irq_i2c1_ev
 .text.rcc_configure_pll
                0x08006f54       0x38 build//Users/marcus/Dropbox/Studienarbeit/Sourcecode/StudienarbeitX/Library/libmaple/libmaple/stm32f1/rcc.o
                0x08006f54                rcc_configure_pll
 .text.rcc_set_prescaler
                0x08006f8c       0x20 build//Users/marcus/Dropbox/Studienarbeit/Sourcecode/StudienarbeitX/Library/libmaple/libmaple/stm32f1/rcc.o
                0x08006f8c                rcc_set_prescaler
 .text.bb_peri_set_bit
                0x08006fac        0xe build//Users/marcus/Dropbox/Studienarbeit/Sourcecode/StudienarbeitX/Library/libmaple/libmaple/stm32f1/rcc.o
 *fill*         0x08006fba        0x2 00
 .text.rcc_clk_enable
                0x08006fbc       0x28 build//Users/marcus/Dropbox/Studienarbeit/Sourcecode/StudienarbeitX/Library/libmaple/libmaple/stm32f1/rcc.o
                0x08006fbc                rcc_clk_enable
 .text.rcc_reset_dev
                0x08006fe4       0x38 build//Users/marcus/Dropbox/Studienarbeit/Sourcecode/StudienarbeitX/Library/libmaple/libmaple/stm32f1/rcc.o
                0x08006fe4                rcc_reset_dev
 .text.spi_config_gpios
                0x0800701c       0x64 build//Users/marcus/Dropbox/Studienarbeit/Sourcecode/StudienarbeitX/Library/libmaple/libmaple/stm32f1/spi.o
                0x0800701c                spi_config_gpios
 .text.__irq_tim1_brk
                0x08007080       0x2c build//Users/marcus/Dropbox/Studienarbeit/Sourcecode/StudienarbeitX/Library/libmaple/libmaple/stm32f1/timer.o
                0x08007080                __irq_tim1_brk
 .text.__irq_tim1_up
                0x080070ac       0x2c build//Users/marcus/Dropbox/Studienarbeit/Sourcecode/StudienarbeitX/Library/libmaple/libmaple/stm32f1/timer.o
                0x080070ac                __irq_tim1_up
 .text.__irq_tim1_trg_com
                0x080070d8       0x40 build//Users/marcus/Dropbox/Studienarbeit/Sourcecode/StudienarbeitX/Library/libmaple/libmaple/stm32f1/timer.o
                0x080070d8                __irq_tim1_trg_com
 .text.__irq_tim1_cc
                0x08007118       0x60 build//Users/marcus/Dropbox/Studienarbeit/Sourcecode/StudienarbeitX/Library/libmaple/libmaple/stm32f1/timer.o
                0x08007118                __irq_tim1_cc
 .text.__irq_tim2
                0x08007178       0x8c build//Users/marcus/Dropbox/Studienarbeit/Sourcecode/StudienarbeitX/Library/libmaple/libmaple/stm32f1/timer.o
                0x08007178                __irq_tim2
 .text.__irq_tim3
                0x08007204       0x8c build//Users/marcus/Dropbox/Studienarbeit/Sourcecode/StudienarbeitX/Library/libmaple/libmaple/stm32f1/timer.o
                0x08007204                __irq_tim3
 .text.__irq_tim4
                0x08007290       0x8c build//Users/marcus/Dropbox/Studienarbeit/Sourcecode/StudienarbeitX/Library/libmaple/libmaple/stm32f1/timer.o
                0x08007290                __irq_tim4
 .text.rb_push_insert
                0x0800731c       0x52 build//Users/marcus/Dropbox/Studienarbeit/Sourcecode/StudienarbeitX/Library/libmaple/libmaple/stm32f1/usart.o
 *fill*         0x0800736e        0x2 00
 .text.usart_foreach
                0x08007370       0x24 build//Users/marcus/Dropbox/Studienarbeit/Sourcecode/StudienarbeitX/Library/libmaple/libmaple/stm32f1/usart.o
                0x08007370                usart_foreach
 .text.__irq_usart1
                0x08007394       0x14 build//Users/marcus/Dropbox/Studienarbeit/Sourcecode/StudienarbeitX/Library/libmaple/libmaple/stm32f1/usart.o
                0x08007394                __irq_usart1
 .text.__irq_usart2
                0x080073a8       0x14 build//Users/marcus/Dropbox/Studienarbeit/Sourcecode/StudienarbeitX/Library/libmaple/libmaple/stm32f1/usart.o
                0x080073a8                __irq_usart2
 .text.__irq_usart3
                0x080073bc       0x14 build//Users/marcus/Dropbox/Studienarbeit/Sourcecode/StudienarbeitX/Library/libmaple/libmaple/stm32f1/usart.o
                0x080073bc                __irq_usart3
 .text.usart_set_baud_rate
                0x080073d0       0x54 build//Users/marcus/Dropbox/Studienarbeit/Sourcecode/StudienarbeitX/Library/libmaple/libmaple/stm32f1/usart.o
                0x080073d0                usart_set_baud_rate
 .text          0x08007424       0x10 build//Users/marcus/Dropbox/Studienarbeit/Sourcecode/StudienarbeitX/Library/libmaple/wirish/start.o
                0x08007424                _start
 .text.start_c  0x08007434       0x64 build//Users/marcus/Dropbox/Studienarbeit/Sourcecode/StudienarbeitX/Library/libmaple/wirish/start_c.o
                0x08007434                start_c
 .text._sbrk    0x08007498       0x44 build//Users/marcus/Dropbox/Studienarbeit/Sourcecode/StudienarbeitX/Library/libmaple/wirish/syscalls.o
                0x08007498                _sbrk
 .text.nvic_irq_enable
                0x080074dc       0x1c build//Users/marcus/Dropbox/Studienarbeit/Sourcecode/StudienarbeitX/Library/libmaple/wirish/stm32f1/util_hooks.o
 .text.__lm_enable_error_usart
                0x080074f8       0x30 build//Users/marcus/Dropbox/Studienarbeit/Sourcecode/StudienarbeitX/Library/libmaple/wirish/stm32f1/util_hooks.o
                0x080074f8                __lm_enable_error_usart
 .text.__lm_error
                0x08007528       0x44 build//Users/marcus/Dropbox/Studienarbeit/Sourcecode/StudienarbeitX/Library/libmaple/wirish/stm32f1/util_hooks.o
                0x08007528                __lm_error
 .text.adc_disable
                0x0800756c       0x12 build//Users/marcus/Dropbox/Studienarbeit/Sourcecode/StudienarbeitX/Library/libmaple/wirish/stm32f1/util_hooks.o
 .text._Z9boardInitv
                0x0800757e        0x2 build//Users/marcus/Dropbox/Studienarbeit/Sourcecode/StudienarbeitX/Library/libmaple/wirish/boards.o
                0x0800757e                _Z9boardInitv
 .text._ZL18adc_default_configPK7adc_dev
                0x08007580       0x1c build//Users/marcus/Dropbox/Studienarbeit/Sourcecode/StudienarbeitX/Library/libmaple/wirish/boards.o
 .text._Z4initv
                0x0800759c       0xc0 build//Users/marcus/Dropbox/Studienarbeit/Sourcecode/StudienarbeitX/Library/libmaple/wirish/boards.o
                0x0800759c                _Z4initv
 .text.T.10     0x0800765c        0x8 build//Users/marcus/Dropbox/Studienarbeit/Sourcecode/StudienarbeitX/Library/libmaple/wirish/boards.o
 .text._ZL20timer_default_configP9timer_dev
                0x08007664       0xa2 build//Users/marcus/Dropbox/Studienarbeit/Sourcecode/StudienarbeitX/Library/libmaple/wirish/boards.o
 .text.__cxa_pure_virtual
                0x08007706        0x2 build//Users/marcus/Dropbox/Studienarbeit/Sourcecode/StudienarbeitX/Library/libmaple/wirish/cxxabi-compat.o
                0x08007706                __cxa_pure_virtual
 .text._ZN5PrintC2Ev
                0x08007708        0xc build//Users/marcus/Dropbox/Studienarbeit/Sourcecode/StudienarbeitX/Library/libmaple/wirish/HardwareSerial.o
                0x08007708                _ZN5PrintC2Ev
 .text._ZN14HardwareSerialC1EP9usart_devhh
                0x08007714       0x20 build//Users/marcus/Dropbox/Studienarbeit/Sourcecode/StudienarbeitX/Library/libmaple/wirish/HardwareSerial.o
                0x08007714                _ZN14HardwareSerialC1EP9usart_devhh
 .text._ZN14HardwareSerial5writeEh
                0x08007734       0x1a build//Users/marcus/Dropbox/Studienarbeit/Sourcecode/StudienarbeitX/Library/libmaple/wirish/HardwareSerial.o
                0x08007734                _ZN14HardwareSerial5writeEh
 *fill*         0x0800774e        0x2 00
 .text._GLOBAL__I_Serial1
                0x08007750       0x48 build//Users/marcus/Dropbox/Studienarbeit/Sourcecode/StudienarbeitX/Library/libmaple/wirish/HardwareSerial.o
 .text._ZL10interruptsv
                0x08007798        0x4 build//Users/marcus/Dropbox/Studienarbeit/Sourcecode/StudienarbeitX/Library/libmaple/wirish/HardwareTimer.o
 .text._ZL12noInterruptsv
                0x0800779c        0x4 build//Users/marcus/Dropbox/Studienarbeit/Sourcecode/StudienarbeitX/Library/libmaple/wirish/HardwareTimer.o
 .text.set_this_dev
                0x080077a0       0x1c build//Users/marcus/Dropbox/Studienarbeit/Sourcecode/StudienarbeitX/Library/libmaple/wirish/HardwareTimer.o
 .text._ZN13HardwareTimerC1Eh
                0x080077bc       0x48 build//Users/marcus/Dropbox/Studienarbeit/Sourcecode/StudienarbeitX/Library/libmaple/wirish/HardwareTimer.o
                0x080077bc                _ZN13HardwareTimerC1Eh
 .text._GLOBAL__I__ZN13HardwareTimerC2Eh
                0x08007804       0x38 build//Users/marcus/Dropbox/Studienarbeit/Sourcecode/StudienarbeitX/Library/libmaple/wirish/HardwareTimer.o
 .text._ZN5Print5writeEPKc
                0x0800783c       0x1c build//Users/marcus/Dropbox/Studienarbeit/Sourcecode/StudienarbeitX/Library/libmaple/wirish/Print.o
                0x0800783c                _ZN5Print5writeEPKc
 .text._ZN5Print5writeEPKvj
                0x08007858       0x20 build//Users/marcus/Dropbox/Studienarbeit/Sourcecode/StudienarbeitX/Library/libmaple/wirish/Print.o
                0x08007858                _ZN5Print5writeEPKvj
 .text._ZN5Print5printEc
                0x08007878        0xa build//Users/marcus/Dropbox/Studienarbeit/Sourcecode/StudienarbeitX/Library/libmaple/wirish/Print.o
                0x08007878                _ZN5Print5printEc
 .text._ZN5Print5printEPKc
                0x08007882        0xa build//Users/marcus/Dropbox/Studienarbeit/Sourcecode/StudienarbeitX/Library/libmaple/wirish/Print.o
                0x08007882                _ZN5Print5printEPKc
 .text._ZN5Print7printlnEv
                0x0800788c       0x16 build//Users/marcus/Dropbox/Studienarbeit/Sourcecode/StudienarbeitX/Library/libmaple/wirish/Print.o
                0x0800788c                _ZN5Print7printlnEv
 .text._ZN5Print7printlnEPKc
                0x080078a2       0x12 build//Users/marcus/Dropbox/Studienarbeit/Sourcecode/StudienarbeitX/Library/libmaple/wirish/Print.o
                0x080078a2                _ZN5Print7printlnEPKc
 .text._ZN5Print11printNumberEyh
                0x080078b4       0x7c build//Users/marcus/Dropbox/Studienarbeit/Sourcecode/StudienarbeitX/Library/libmaple/wirish/Print.o
                0x080078b4                _ZN5Print11printNumberEyh
 .text._ZN5Print5printEyi
                0x08007930       0x1e build//Users/marcus/Dropbox/Studienarbeit/Sourcecode/StudienarbeitX/Library/libmaple/wirish/Print.o
                0x08007930                _ZN5Print5printEyi
 .text._ZN5Print5printEji
                0x0800794e        0xe build//Users/marcus/Dropbox/Studienarbeit/Sourcecode/StudienarbeitX/Library/libmaple/wirish/Print.o
                0x0800794e                _ZN5Print5printEji
 .text._ZN5Print7printlnEji
                0x0800795c       0x12 build//Users/marcus/Dropbox/Studienarbeit/Sourcecode/StudienarbeitX/Library/libmaple/wirish/Print.o
                0x0800795c                _ZN5Print7printlnEji
 .text._ZN5Print5printExi
                0x0800796e       0x40 build//Users/marcus/Dropbox/Studienarbeit/Sourcecode/StudienarbeitX/Library/libmaple/wirish/Print.o
                0x0800796e                _ZN5Print5printExi
 .text._ZN5Print5printEii
                0x080079ae       0x10 build//Users/marcus/Dropbox/Studienarbeit/Sourcecode/StudienarbeitX/Library/libmaple/wirish/Print.o
                0x080079ae                _ZN5Print5printEii
 *fill*         0x080079be        0x2 00
 .text._ZN9USBSerialC1Ev
                0x080079c0       0x14 build//Users/marcus/Dropbox/Studienarbeit/Sourcecode/StudienarbeitX/Library/libmaple/wirish/usb_serial.o
                0x080079c0                _ZN9USBSerialC1Ev
 .text._ZN9USBSerial5writeEh
                0x080079d4       0x14 build//Users/marcus/Dropbox/Studienarbeit/Sourcecode/StudienarbeitX/Library/libmaple/wirish/usb_serial.o
                0x080079d4                _ZN9USBSerial5writeEh
 .text._ZN9USBSerial11isConnectedEv
                0x080079e8       0x18 build//Users/marcus/Dropbox/Studienarbeit/Sourcecode/StudienarbeitX/Library/libmaple/wirish/usb_serial.o
                0x080079e8                _ZN9USBSerial11isConnectedEv
 .text._ZN9USBSerial9availableEv
                0x08007a00        0x4 build//Users/marcus/Dropbox/Studienarbeit/Sourcecode/StudienarbeitX/Library/libmaple/wirish/usb_serial.o
                0x08007a00                _ZN9USBSerial9availableEv
 .text._ZN9USBSerial5writeEPKvj
                0x08007a04       0x50 build//Users/marcus/Dropbox/Studienarbeit/Sourcecode/StudienarbeitX/Library/libmaple/wirish/usb_serial.o
                0x08007a04                _ZN9USBSerial5writeEPKvj
 .text._ZN9USBSerial5writeEPKc
                0x08007a54       0x1a build//Users/marcus/Dropbox/Studienarbeit/Sourcecode/StudienarbeitX/Library/libmaple/wirish/usb_serial.o
                0x08007a54                _ZN9USBSerial5writeEPKc
 *fill*         0x08007a6e        0x2 00
 .text._ZN9USBSerial5beginEv
                0x08007a70       0x10 build//Users/marcus/Dropbox/Studienarbeit/Sourcecode/StudienarbeitX/Library/libmaple/wirish/usb_serial.o
                0x08007a70                _ZN9USBSerial5beginEv
 .text._GLOBAL__I__ZN9USBSerialC2Ev
                0x08007a80        0xc build//Users/marcus/Dropbox/Studienarbeit/Sourcecode/StudienarbeitX/Library/libmaple/wirish/usb_serial.o
 .text.spi_is_rx_nonempty
                0x08007a8c        0xa build//Users/marcus/Dropbox/Studienarbeit/Sourcecode/StudienarbeitX/Library/libmaple/wirish/HardwareSPI.o
 .text._ZN11HardwareSPI4readEPhj
                0x08007a96       0x26 build//Users/marcus/Dropbox/Studienarbeit/Sourcecode/StudienarbeitX/Library/libmaple/wirish/HardwareSPI.o
                0x08007a96                _ZN11HardwareSPI4readEPhj
 .text._ZN11HardwareSPI4readEv
                0x08007abc       0x10 build//Users/marcus/Dropbox/Studienarbeit/Sourcecode/StudienarbeitX/Library/libmaple/wirish/HardwareSPI.o
                0x08007abc                _ZN11HardwareSPI4readEv
 .text._ZL15dev_to_spi_pinsP7spi_dev
                0x08007acc       0x1c build//Users/marcus/Dropbox/Studienarbeit/Sourcecode/StudienarbeitX/Library/libmaple/wirish/HardwareSPI.o
 .text._ZN11HardwareSPI6nssPinEv
                0x08007ae8        0xc build//Users/marcus/Dropbox/Studienarbeit/Sourcecode/StudienarbeitX/Library/libmaple/wirish/HardwareSPI.o
                0x08007ae8                _ZN11HardwareSPI6nssPinEv
 .text._ZN11HardwareSPI5writeEPKvj
                0x08007af4       0x12 build//Users/marcus/Dropbox/Studienarbeit/Sourcecode/StudienarbeitX/Library/libmaple/wirish/HardwareSPI.o
                0x08007af4                _ZN11HardwareSPI5writeEPKvj
 .text._ZN11HardwareSPI8transferEh
                0x08007b06       0x1a build//Users/marcus/Dropbox/Studienarbeit/Sourcecode/StudienarbeitX/Library/libmaple/wirish/HardwareSPI.o
                0x08007b06                _ZN11HardwareSPI8transferEh
 .text._ZN11HardwareSPI5writeEh
                0x08007b20       0x12 build//Users/marcus/Dropbox/Studienarbeit/Sourcecode/StudienarbeitX/Library/libmaple/wirish/HardwareSPI.o
                0x08007b20                _ZN11HardwareSPI5writeEh
 *fill*         0x08007b32        0x2 00
 .text._ZN11HardwareSPIC1Ej
                0x08007b34       0x38 build//Users/marcus/Dropbox/Studienarbeit/Sourcecode/StudienarbeitX/Library/libmaple/wirish/HardwareSPI.o
                0x08007b34                _ZN11HardwareSPIC1Ej
 .text._ZL11disable_pwmPK14stm32_pin_info
                0x08007b6c       0x10 build//Users/marcus/Dropbox/Studienarbeit/Sourcecode/StudienarbeitX/Library/libmaple/wirish/HardwareSPI.o
 .text._ZL13enable_deviceP7spi_devb12SPIFrequency12spi_cfg_flag8spi_mode
                0x08007b7c      0x114 build//Users/marcus/Dropbox/Studienarbeit/Sourcecode/StudienarbeitX/Library/libmaple/wirish/HardwareSPI.o
 .text._ZN11HardwareSPI5beginE12SPIFrequencyjj
                0x08007c90       0x3c build//Users/marcus/Dropbox/Studienarbeit/Sourcecode/StudienarbeitX/Library/libmaple/wirish/HardwareSPI.o
                0x08007c90                _ZN11HardwareSPI5beginE12SPIFrequencyjj
 .text._Z12digitalWritehh
                0x08007ccc       0x30 build//Users/marcus/Dropbox/Studienarbeit/Sourcecode/StudienarbeitX/Library/libmaple/wirish/wirish_digital.o
                0x08007ccc                _Z12digitalWritehh
 .text._Z17delayMicrosecondsj
                0x08007cfc        0xe build//Users/marcus/Dropbox/Studienarbeit/Sourcecode/StudienarbeitX/Library/libmaple/wirish/wirish_time.o
                0x08007cfc                _Z17delayMicrosecondsj
 .text._Z5delaym
                0x08007d0a       0x18 build//Users/marcus/Dropbox/Studienarbeit/Sourcecode/StudienarbeitX/Library/libmaple/wirish/wirish_time.o
                0x08007d0a                _Z5delaym
 .text._ZN6wirish4priv15board_reset_pllEv
                0x08007d22        0x2 build//Users/marcus/Dropbox/Studienarbeit/Sourcecode/StudienarbeitX/Library/libmaple/wirish/stm32f1/boards_setup.o
                0x08007d22                _ZN6wirish4priv15board_reset_pllEv
 .text._ZN6wirish4priv11series_initEv
                0x08007d24        0x4 build//Users/marcus/Dropbox/Studienarbeit/Sourcecode/StudienarbeitX/Library/libmaple/wirish/stm32f1/boards_setup.o
                0x08007d24                _ZN6wirish4priv11series_initEv
 .text._ZN6wirish4priv15board_setup_usbEv
                0x08007d28        0xc build//Users/marcus/Dropbox/Studienarbeit/Sourcecode/StudienarbeitX/Library/libmaple/wirish/stm32f1/boards_setup.o
                0x08007d28                _ZN6wirish4priv15board_setup_usbEv
 .text._ZN6wirish4priv16board_setup_gpioEv
                0x08007d34        0x4 build//Users/marcus/Dropbox/Studienarbeit/Sourcecode/StudienarbeitX/Library/libmaple/wirish/stm32f1/boards_setup.o
                0x08007d34                _ZN6wirish4priv16board_setup_gpioEv
 .text._ZN6wirish4priv28board_setup_clock_prescalersEv
                0x08007d38       0x20 build//Users/marcus/Dropbox/Studienarbeit/Sourcecode/StudienarbeitX/Library/libmaple/wirish/stm32f1/boards_setup.o
                0x08007d38                _ZN6wirish4priv28board_setup_clock_prescalersEv
 .text._Z7pinModeh13WiringPinMode
                0x08007d58       0x88 build//Users/marcus/Dropbox/Studienarbeit/Sourcecode/StudienarbeitX/Library/libmaple/wirish/stm32f1/wirish_digital.o
                0x08007d58                _Z7pinModeh13WiringPinMode
 .text._GLOBAL__I_PIN_MAP
                0x08007de0      0x158 build//Users/marcus/Dropbox/Studienarbeit/Sourcecode/StudienarbeitX/Library/libmaple/wirish/boards/maple/board.o
 .text._ZN17WFSEthernetClientaSERKS_
                0x08007f38        0x6 build//Users/marcus/Dropbox/Studienarbeit/Sourcecode/StudienarbeitX/Library/TinyWebServer/TinyWebServer.o
                0x08007f38                _ZN17WFSEthernetClientaSERKS_
 .text._ZN13TinyWebServer14read_next_charER17WFSEthernetClientPh
                0x08007f3e       0x20 build//Users/marcus/Dropbox/Studienarbeit/Sourcecode/StudienarbeitX/Library/TinyWebServer/TinyWebServer.o
                0x08007f3e                _ZN13TinyWebServer14read_next_charER17WFSEthernetClientPh
 .text._ZN13TinyWebServer8get_lineEPci
                0x08007f5e       0x48 build//Users/marcus/Dropbox/Studienarbeit/Sourcecode/StudienarbeitX/Library/TinyWebServer/TinyWebServer.o
                0x08007f5e                _ZN13TinyWebServer8get_lineEPci
 .text._ZN13TinyWebServer5writeEPKhj
                0x08007fa6        0xa build//Users/marcus/Dropbox/Studienarbeit/Sourcecode/StudienarbeitX/Library/TinyWebServer/TinyWebServer.o
                0x08007fa6                _ZN13TinyWebServer5writeEPKhj
 .text._ZN13TinyWebServer22should_stop_processingEv
                0x08007fb0       0x12 build//Users/marcus/Dropbox/Studienarbeit/Sourcecode/StudienarbeitX/Library/TinyWebServer/TinyWebServer.o
                0x08007fb0                _ZN13TinyWebServer22should_stop_processingEv
 .text._ZN13TinyWebServer11end_headersER17WFSEthernetClient
                0x08007fc2        0x4 build//Users/marcus/Dropbox/Studienarbeit/Sourcecode/StudienarbeitX/Library/TinyWebServer/TinyWebServer.o
                0x08007fc2                _ZN13TinyWebServer11end_headersER17WFSEthernetClient
 .text._ZN13TinyWebServer5writeEPKc
                0x08007fc6        0x6 build//Users/marcus/Dropbox/Studienarbeit/Sourcecode/StudienarbeitX/Library/TinyWebServer/TinyWebServer.o
                0x08007fc6                _ZN13TinyWebServer5writeEPKc
 .text._ZN13TinyWebServer5writeEh
                0x08007fcc        0x6 build//Users/marcus/Dropbox/Studienarbeit/Sourcecode/StudienarbeitX/Library/TinyWebServer/TinyWebServer.o
                0x08007fcc                _ZN13TinyWebServer5writeEh
 .text._ZN13TinyWebServer19is_requested_headerEPPKc
                0x08007fd2       0x28 build//Users/marcus/Dropbox/Studienarbeit/Sourcecode/StudienarbeitX/Library/TinyWebServer/TinyWebServer.o
                0x08007fd2                _ZN13TinyWebServer19is_requested_headerEPPKc
 *fill*         0x08007ffa        0x2 00
 .text._ZN13TinyWebServer15send_error_codeER17WFSEthernetClienti
                0x08007ffc       0x38 build//Users/marcus/Dropbox/Studienarbeit/Sourcecode/StudienarbeitX/Library/TinyWebServer/TinyWebServer.o
                0x08007ffc                _ZN13TinyWebServer15send_error_codeER17WFSEthernetClienti
 .text._ZN13TinyWebServer15send_error_codeEi
                0x08008034        0x6 build//Users/marcus/Dropbox/Studienarbeit/Sourcecode/StudienarbeitX/Library/TinyWebServer/TinyWebServer.o
                0x08008034                _ZN13TinyWebServer15send_error_codeEi
 .text._ZN13TinyWebServer5beginEP11WFSEthernet
                0x0800803a        0x6 build//Users/marcus/Dropbox/Studienarbeit/Sourcecode/StudienarbeitX/Library/TinyWebServer/TinyWebServer.o
                0x0800803a                _ZN13TinyWebServer5beginEP11WFSEthernet
 .text._Z12malloc_checkj
                0x08008040       0x40 build//Users/marcus/Dropbox/Studienarbeit/Sourcecode/StudienarbeitX/Library/TinyWebServer/TinyWebServer.o
                0x08008040                _Z12malloc_checkj
 .text._ZN13TinyWebServer9get_fieldEPKci
                0x08008080       0x9a build//Users/marcus/Dropbox/Studienarbeit/Sourcecode/StudienarbeitX/Library/TinyWebServer/TinyWebServer.o
                0x08008080                _ZN13TinyWebServer9get_fieldEPKci
 .text._ZN13TinyWebServer19assign_header_valueEPKcPc
                0x0800811a       0x46 build//Users/marcus/Dropbox/Studienarbeit/Sourcecode/StudienarbeitX/Library/TinyWebServer/TinyWebServer.o
                0x0800811a                _ZN13TinyWebServer19assign_header_valueEPKcPc
 .text._ZN13TinyWebServer15process_headersEv
                0x08008160      0x154 build//Users/marcus/Dropbox/Studienarbeit/Sourcecode/StudienarbeitX/Library/TinyWebServer/TinyWebServer.o
                0x08008160                _ZN13TinyWebServer15process_headersEv
 .text._ZN13TinyWebServer7processEv
                0x080082b4      0x198 build//Users/marcus/Dropbox/Studienarbeit/Sourcecode/StudienarbeitX/Library/TinyWebServer/TinyWebServer.o
                0x080082b4                _ZN13TinyWebServer7processEv
 .text._ZN13TinyWebServerC1EPNS_11PathHandlerEPPKc
                0x0800844c       0x70 build//Users/marcus/Dropbox/Studienarbeit/Sourcecode/StudienarbeitX/Library/TinyWebServer/TinyWebServer.o
                0x0800844c                _ZN13TinyWebServerC1EPNS_11PathHandlerEPPKc
 .text._ZN13SpiUartDevice6selectEv
                0x080084bc       0x18 build//Users/marcus/Dropbox/Studienarbeit/Sourcecode/StudienarbeitX/Library/WiFlySerial/SpiUart.o
                0x080084bc                _ZN13SpiUartDevice6selectEv
 .text._ZN13SpiUartDevice8deselectEv
                0x080084d4       0x18 build//Users/marcus/Dropbox/Studienarbeit/Sourcecode/StudienarbeitX/Library/WiFlySerial/SpiUart.o
                0x080084d4                _ZN13SpiUartDevice8deselectEv
 .text._ZN13SpiUartDevice12readRegisterEh
                0x080084ec       0x30 build//Users/marcus/Dropbox/Studienarbeit/Sourcecode/StudienarbeitX/Library/WiFlySerial/SpiUart.o
                0x080084ec                _ZN13SpiUartDevice12readRegisterEh
 .text._ZN13SpiUartDevice5writeEPKc
                0x0800851c       0x34 build//Users/marcus/Dropbox/Studienarbeit/Sourcecode/StudienarbeitX/Library/WiFlySerial/SpiUart.o
                0x0800851c                _ZN13SpiUartDevice5writeEPKc
 .text._ZN13SpiUartDevice9availableEv
                0x08008550        0x6 build//Users/marcus/Dropbox/Studienarbeit/Sourcecode/StudienarbeitX/Library/WiFlySerial/SpiUart.o
                0x08008550                _ZN13SpiUartDevice9availableEv
 .text._ZN13SpiUartDevice4readEv
                0x08008556       0x1a build//Users/marcus/Dropbox/Studienarbeit/Sourcecode/StudienarbeitX/Library/WiFlySerial/SpiUart.o
                0x08008556                _ZN13SpiUartDevice4readEv
 .text._ZN13SpiUartDevice5flushEv
                0x08008570       0x18 build//Users/marcus/Dropbox/Studienarbeit/Sourcecode/StudienarbeitX/Library/WiFlySerial/SpiUart.o
                0x08008570                _ZN13SpiUartDevice5flushEv
 .text._ZN13SpiUartDevice13writeRegisterEhh
                0x08008588       0x30 build//Users/marcus/Dropbox/Studienarbeit/Sourcecode/StudienarbeitX/Library/WiFlySerial/SpiUart.o
                0x08008588                _ZN13SpiUartDevice13writeRegisterEhh
 .text._ZN13SpiUartDevice5writeEh
                0x080085b8       0x20 build//Users/marcus/Dropbox/Studienarbeit/Sourcecode/StudienarbeitX/Library/WiFlySerial/SpiUart.o
                0x080085b8                _ZN13SpiUartDevice5writeEh
 .text._ZN13SpiUartDevice13uartConnectedEv
                0x080085d8       0x24 build//Users/marcus/Dropbox/Studienarbeit/Sourcecode/StudienarbeitX/Library/WiFlySerial/SpiUart.o
                0x080085d8                _ZN13SpiUartDevice13uartConnectedEv
 .text._ZN13SpiUartDevice11setBaudRateEm
                0x080085fc       0x30 build//Users/marcus/Dropbox/Studienarbeit/Sourcecode/StudienarbeitX/Library/WiFlySerial/SpiUart.o
                0x080085fc                _ZN13SpiUartDevice11setBaudRateEm
 .text._ZN13SpiUartDevice13configureUartEm
                0x0800862c       0x44 build//Users/marcus/Dropbox/Studienarbeit/Sourcecode/StudienarbeitX/Library/WiFlySerial/SpiUart.o
                0x0800862c                _ZN13SpiUartDevice13configureUartEm
 .text._ZN13SpiUartDevice8initUartEm
                0x08008670       0x12 build//Users/marcus/Dropbox/Studienarbeit/Sourcecode/StudienarbeitX/Library/WiFlySerial/SpiUart.o
                0x08008670                _ZN13SpiUartDevice8initUartEm
 *fill*         0x08008682        0x2 00
 .text._ZN13SpiUartDevice5beginEP11HardwareSPIm
                0x08008684       0x40 build//Users/marcus/Dropbox/Studienarbeit/Sourcecode/StudienarbeitX/Library/WiFlySerial/SpiUart.o
                0x08008684                _ZN13SpiUartDevice5beginEP11HardwareSPIm
 .text._ZN11WiFlySerialC1Ev
                0x080086c4       0x34 build//Users/marcus/Dropbox/Studienarbeit/Sourcecode/StudienarbeitX/Library/WiFlySerial/WiFlySerial.o
                0x080086c4                _ZN11WiFlySerialC1Ev
 .text._ZN11WiFlySerial14openConnectionEv
                0x080086f8        0x6 build//Users/marcus/Dropbox/Studienarbeit/Sourcecode/StudienarbeitX/Library/WiFlySerial/WiFlySerial.o
                0x080086f8                _ZN11WiFlySerial14openConnectionEv
 .text._ZN11WiFlySerial16isConnectionOpenEv
                0x080086fe        0x4 build//Users/marcus/Dropbox/Studienarbeit/Sourcecode/StudienarbeitX/Library/WiFlySerial/WiFlySerial.o
                0x080086fe                _ZN11WiFlySerial16isConnectionOpenEv
 .text._ZN11WiFlySerial5writeEh
                0x08008702        0xc build//Users/marcus/Dropbox/Studienarbeit/Sourcecode/StudienarbeitX/Library/WiFlySerial/WiFlySerial.o
                0x08008702                _ZN11WiFlySerial5writeEh
 .text._ZN11WiFlySerial4peekEv
                0x0800870e        0x4 build//Users/marcus/Dropbox/Studienarbeit/Sourcecode/StudienarbeitX/Library/WiFlySerial/WiFlySerial.o
                0x0800870e                _ZN11WiFlySerial4peekEv
 .text._ZN11WiFlySerial9availableEv
                0x08008712        0xa build//Users/marcus/Dropbox/Studienarbeit/Sourcecode/StudienarbeitX/Library/WiFlySerial/WiFlySerial.o
                0x08008712                _ZN11WiFlySerial9availableEv
 .text._ZN11WiFlySerial4readEv
                0x0800871c        0x6 build//Users/marcus/Dropbox/Studienarbeit/Sourcecode/StudienarbeitX/Library/WiFlySerial/WiFlySerial.o
                0x0800871c                _ZN11WiFlySerial4readEv
 .text._ZN11WiFlySerial5flushEv
                0x08008722        0x6 build//Users/marcus/Dropbox/Studienarbeit/Sourcecode/StudienarbeitX/Library/WiFlySerial/WiFlySerial.o
                0x08008722                _ZN11WiFlySerial5flushEv
 .text._Z7reversePcS_
                0x08008728       0x20 build//Users/marcus/Dropbox/Studienarbeit/Sourcecode/StudienarbeitX/Library/WiFlySerial/WiFlySerial.o
                0x08008728                _Z7reversePcS_
 .text._Z4itoaiPci
                0x08008748       0x48 build//Users/marcus/Dropbox/Studienarbeit/Sourcecode/StudienarbeitX/Library/WiFlySerial/WiFlySerial.o
                0x08008748                _Z4itoaiPci
 .text._ZN11WiFlySerial15closeConnectionEv
                0x08008790       0x28 build//Users/marcus/Dropbox/Studienarbeit/Sourcecode/StudienarbeitX/Library/WiFlySerial/WiFlySerial.o
                0x08008790                _ZN11WiFlySerial15closeConnectionEv
 .text._ZN11WiFlySerial14ScanForPatternEPciPKcbmb
                0x080087b8      0x110 build//Users/marcus/Dropbox/Studienarbeit/Sourcecode/StudienarbeitX/Library/WiFlySerial/WiFlySerial.o
                0x080087b8                _ZN11WiFlySerial14ScanForPatternEPciPKcbmb
 .text._ZN11WiFlySerial15serveConnectionEm
                0x080088c8       0x2c build//Users/marcus/Dropbox/Studienarbeit/Sourcecode/StudienarbeitX/Library/WiFlySerial/WiFlySerial.o
                0x080088c8                _ZN11WiFlySerial15serveConnectionEm
 .text._ZN11WiFlySerial16StartCommandModeEPci
                0x080088f4       0xf8 build//Users/marcus/Dropbox/Studienarbeit/Sourcecode/StudienarbeitX/Library/WiFlySerial/WiFlySerial.o
                0x080088f4                _ZN11WiFlySerial16StartCommandModeEPci
 .text._ZN11WiFlySerial11SendCommandEPKcS1_Pcibmbb
                0x080089ec       0x84 build//Users/marcus/Dropbox/Studienarbeit/Sourcecode/StudienarbeitX/Library/WiFlySerial/WiFlySerial.o
                0x080089ec                _ZN11WiFlySerial11SendCommandEPKcS1_Pcibmbb
 .text._ZN11WiFlySerial12issueSettingEiPKc
                0x08008a70       0x54 build//Users/marcus/Dropbox/Studienarbeit/Sourcecode/StudienarbeitX/Library/WiFlySerial/WiFlySerial.o
                0x08008a70                _ZN11WiFlySerial12issueSettingEiPKc
 .text._ZN11WiFlySerial12setLocalPortEi
                0x08008ac4       0x22 build//Users/marcus/Dropbox/Studienarbeit/Sourcecode/StudienarbeitX/Library/WiFlySerial/WiFlySerial.o
                0x08008ac4                _ZN11WiFlySerial12setLocalPortEi
 *fill*         0x08008ae6        0x2 00
 .text._ZN11WiFlySerial15exitCommandModeEv
                0x08008ae8       0x48 build//Users/marcus/Dropbox/Studienarbeit/Sourcecode/StudienarbeitX/Library/WiFlySerial/WiFlySerial.o
                0x08008ae8                _ZN11WiFlySerial15exitCommandModeEv
 .text._ZN11WiFlySerial13ExtractDetailEPKcPciS1_S1_
                0x08008b30       0x60 build//Users/marcus/Dropbox/Studienarbeit/Sourcecode/StudienarbeitX/Library/WiFlySerial/WiFlySerial.o
                0x08008b30                _ZN11WiFlySerial13ExtractDetailEPKcPciS1_S1_
 .text._ZN11WiFlySerial16ExtractDetailIdxEiPciii
                0x08008b90       0x5c build//Users/marcus/Dropbox/Studienarbeit/Sourcecode/StudienarbeitX/Library/WiFlySerial/WiFlySerial.o
                0x08008b90                _ZN11WiFlySerial16ExtractDetailIdxEiPciii
 .text._ZN11WiFlySerial5getIPEPci
                0x08008bec       0x18 build//Users/marcus/Dropbox/Studienarbeit/Sourcecode/StudienarbeitX/Library/WiFlySerial/WiFlySerial.o
                0x08008bec                _ZN11WiFlySerial5getIPEPci
 .text._ZN11WiFlySerial12GetCmdPromptEv
                0x08008c04       0x80 build//Users/marcus/Dropbox/Studienarbeit/Sourcecode/StudienarbeitX/Library/WiFlySerial/WiFlySerial.o
                0x08008c04                _ZN11WiFlySerial12GetCmdPromptEv
 .text._ZN11WiFlySerial5beginEP13SpiUartDevice
                0x08008c84       0x44 build//Users/marcus/Dropbox/Studienarbeit/Sourcecode/StudienarbeitX/Library/WiFlySerial/WiFlySerial.o
                0x08008c84                _ZN11WiFlySerial5beginEP13SpiUartDevice
 .text._ZN11WFSEthernet5beginEP11WiFlySerial
                0x08008cc8        0x8 build//Users/marcus/Dropbox/Studienarbeit/Sourcecode/StudienarbeitX/Library/WiFlySerial/WFSEthernet.o
                0x08008cc8                _ZN11WFSEthernet5beginEP11WiFlySerial
 .text._ZN11WFSEthernet5flushEv
                0x08008cd0        0xc build//Users/marcus/Dropbox/Studienarbeit/Sourcecode/StudienarbeitX/Library/WiFlySerial/WFSEthernet.o
                0x08008cd0                _ZN11WFSEthernet5flushEv
 .text._ZN11WFSEthernet4readEv
                0x08008cdc        0xc build//Users/marcus/Dropbox/Studienarbeit/Sourcecode/StudienarbeitX/Library/WiFlySerial/WFSEthernet.o
                0x08008cdc                _ZN11WFSEthernet4readEv
 .text._ZN11WFSEthernet5writeEh
                0x08008ce8        0xc build//Users/marcus/Dropbox/Studienarbeit/Sourcecode/StudienarbeitX/Library/WiFlySerial/WFSEthernet.o
                0x08008ce8                _ZN11WFSEthernet5writeEh
 .text._ZN11WFSEthernet9availableEv
                0x08008cf4        0xc build//Users/marcus/Dropbox/Studienarbeit/Sourcecode/StudienarbeitX/Library/WiFlySerial/WFSEthernet.o
                0x08008cf4                _ZN11WFSEthernet9availableEv
 .text._ZN11WFSEthernetC1Ev
                0x08008d00       0x18 build//Users/marcus/Dropbox/Studienarbeit/Sourcecode/StudienarbeitX/Library/WiFlySerial/WFSEthernet.o
                0x08008d00                _ZN11WFSEthernetC1Ev
 .text._ZN11WFSEthernet10disconnectEv
                0x08008d18        0x6 build//Users/marcus/Dropbox/Studienarbeit/Sourcecode/StudienarbeitX/Library/WiFlySerial/WFSEthernet.o
                0x08008d18                _ZN11WFSEthernet10disconnectEv
 .text._ZN11WFSEthernet7connectEv
                0x08008d1e        0x6 build//Users/marcus/Dropbox/Studienarbeit/Sourcecode/StudienarbeitX/Library/WiFlySerial/WFSEthernet.o
                0x08008d1e                _ZN11WFSEthernet7connectEv
 .text._ZN11WFSEthernet16isConnectionOpenEv
                0x08008d24        0x6 build//Users/marcus/Dropbox/Studienarbeit/Sourcecode/StudienarbeitX/Library/WiFlySerial/WFSEthernet.o
                0x08008d24                _ZN11WFSEthernet16isConnectionOpenEv
 .text._ZN11WFSEthernet15serveConnectionEv
                0x08008d2a        0xa build//Users/marcus/Dropbox/Studienarbeit/Sourcecode/StudienarbeitX/Library/WiFlySerial/WFSEthernet.o
                0x08008d2a                _ZN11WFSEthernet15serveConnectionEv
 .text._ZN17WFSEthernetServerC1Etl
                0x08008d34       0x10 build//Users/marcus/Dropbox/Studienarbeit/Sourcecode/StudienarbeitX/Library/WiFlySerial/WFSEthernetServer.o
                0x08008d34                _ZN17WFSEthernetServerC1Etl
 .text._ZN17WFSEthernetServer5writeEh
                0x08008d44        0xc build//Users/marcus/Dropbox/Studienarbeit/Sourcecode/StudienarbeitX/Library/WiFlySerial/WFSEthernetServer.o
                0x08008d44                _ZN17WFSEthernetServer5writeEh
 .text._ZN17WFSEthernetServer6acceptEv
                0x08008d50       0x14 build//Users/marcus/Dropbox/Studienarbeit/Sourcecode/StudienarbeitX/Library/WiFlySerial/WFSEthernetServer.o
                0x08008d50                _ZN17WFSEthernetServer6acceptEv
 .text._ZN17WFSEthernetServer9availableEv
                0x08008d64       0x3c build//Users/marcus/Dropbox/Studienarbeit/Sourcecode/StudienarbeitX/Library/WiFlySerial/WFSEthernetServer.o
                0x08008d64                _ZN17WFSEthernetServer9availableEv
 .text._ZN17WFSEthernetServer5beginEP11WFSEthernet
                0x08008da0        0xe build//Users/marcus/Dropbox/Studienarbeit/Sourcecode/StudienarbeitX/Library/WiFlySerial/WFSEthernetServer.o
                0x08008da0                _ZN17WFSEthernetServer5beginEP11WFSEthernet
 *fill*         0x08008dae        0x2 00
 .text._ZN17WFSEthernetClientC1Ev
                0x08008db0       0x14 build//Users/marcus/Dropbox/Studienarbeit/Sourcecode/StudienarbeitX/Library/WiFlySerial/WFSEthernetClient.o
                0x08008db0                _ZN17WFSEthernetClientC1Ev
 .text._ZN17WFSEthernetClientC1EP11WFSEthernet
                0x08008dc4       0x18 build//Users/marcus/Dropbox/Studienarbeit/Sourcecode/StudienarbeitX/Library/WiFlySerial/WFSEthernetClient.o
                0x08008dc4                _ZN17WFSEthernetClientC1EP11WFSEthernet
 .text._ZN17WFSEthernetClient7connectEPKct
                0x08008ddc        0xa build//Users/marcus/Dropbox/Studienarbeit/Sourcecode/StudienarbeitX/Library/WiFlySerial/WFSEthernetClient.o
                0x08008ddc                _ZN17WFSEthernetClient7connectEPKct
 .text._ZN17WFSEthernetClient7connectE12WFSIPAddresst
                0x08008de6        0xc build//Users/marcus/Dropbox/Studienarbeit/Sourcecode/StudienarbeitX/Library/WiFlySerial/WFSEthernetClient.o
                0x08008de6                _ZN17WFSEthernetClient7connectE12WFSIPAddresst
 .text._ZN17WFSEthernetClient5writeEh
                0x08008df2        0xc build//Users/marcus/Dropbox/Studienarbeit/Sourcecode/StudienarbeitX/Library/WiFlySerial/WFSEthernetClient.o
                0x08008df2                _ZN17WFSEthernetClient5writeEh
 .text._ZN17WFSEthernetClient9availableEv
                0x08008dfe        0xc build//Users/marcus/Dropbox/Studienarbeit/Sourcecode/StudienarbeitX/Library/WiFlySerial/WFSEthernetClient.o
                0x08008dfe                _ZN17WFSEthernetClient9availableEv
 .text._ZN17WFSEthernetClient4readEv
                0x08008e0a        0xc build//Users/marcus/Dropbox/Studienarbeit/Sourcecode/StudienarbeitX/Library/WiFlySerial/WFSEthernetClient.o
                0x08008e0a                _ZN17WFSEthernetClient4readEv
 .text._ZN17WFSEthernetClient4peekEv
                0x08008e16        0x6 build//Users/marcus/Dropbox/Studienarbeit/Sourcecode/StudienarbeitX/Library/WiFlySerial/WFSEthernetClient.o
                0x08008e16                _ZN17WFSEthernetClient4peekEv
 .text._ZN17WFSEthernetClient5flushEv
                0x08008e1c        0xc build//Users/marcus/Dropbox/Studienarbeit/Sourcecode/StudienarbeitX/Library/WiFlySerial/WFSEthernetClient.o
                0x08008e1c                _ZN17WFSEthernetClient5flushEv
 .text._ZN17WFSEthernetClient6statusEv
                0x08008e28        0x6 build//Users/marcus/Dropbox/Studienarbeit/Sourcecode/StudienarbeitX/Library/WiFlySerial/WFSEthernetClient.o
                0x08008e28                _ZN17WFSEthernetClient6statusEv
 .text._ZN17WFSEthernetClientcvbEv
                0x08008e2e        0x4 build//Users/marcus/Dropbox/Studienarbeit/Sourcecode/StudienarbeitX/Library/WiFlySerial/WFSEthernetClient.o
                0x08008e2e                _ZN17WFSEthernetClientcvbEv
 .text._ZN17WFSEthernetClient9connectedEv
                0x08008e32        0x6 build//Users/marcus/Dropbox/Studienarbeit/Sourcecode/StudienarbeitX/Library/WiFlySerial/WFSEthernetClient.o
                0x08008e32                _ZN17WFSEthernetClient9connectedEv
 .text._ZN17WFSEthernetClient4stopEv
                0x08008e38        0x6 build//Users/marcus/Dropbox/Studienarbeit/Sourcecode/StudienarbeitX/Library/WiFlySerial/WFSEthernetClient.o
                0x08008e38                _ZN17WFSEthernetClient4stopEv
 .text._ZN17WFSEthernetClient7connectEv
                0x08008e3e        0x6 build//Users/marcus/Dropbox/Studienarbeit/Sourcecode/StudienarbeitX/Library/WiFlySerial/WFSEthernetClient.o
                0x08008e3e                _ZN17WFSEthernetClient7connectEv
 .text._ZN12WFSIPAddressC1Ev
                0x08008e44       0x10 build//Users/marcus/Dropbox/Studienarbeit/Sourcecode/StudienarbeitX/Library/WiFlySerial/WFSIPAddress.o
                0x08008e44                _ZN12WFSIPAddressC1Ev
 .text._Z13index_handlerR13TinyWebServer
                0x08008e54        0x4 build//Users/marcus/Dropbox/Studienarbeit/Sourcecode/StudienarbeitX/TWS-HelloWorld.o
                0x08008e54                _Z13index_handlerR13TinyWebServer
 .text._Z7premainv
                0x08008e58        0x4 build//Users/marcus/Dropbox/Studienarbeit/Sourcecode/StudienarbeitX/TWS-HelloWorld.o
                0x08008e58                _Z7premainv
 .text._Z4loopv
                0x08008e5c        0xc build//Users/marcus/Dropbox/Studienarbeit/Sourcecode/StudienarbeitX/TWS-HelloWorld.o
                0x08008e5c                _Z4loopv
 .text._Z5setupv
                0x08008e68       0xc8 build//Users/marcus/Dropbox/Studienarbeit/Sourcecode/StudienarbeitX/TWS-HelloWorld.o
                0x08008e68                _Z5setupv
 .text.main     0x08008f30        0xc build//Users/marcus/Dropbox/Studienarbeit/Sourcecode/StudienarbeitX/TWS-HelloWorld.o
                0x08008f30                main
 .text._GLOBAL__I_spi
                0x08008f3c       0x60 build//Users/marcus/Dropbox/Studienarbeit/Sourcecode/StudienarbeitX/TWS-HelloWorld.o
 .text          0x08008f9c       0x2c /usr/local/bin/../lib/gcc/arm-none-eabi/4.4.1/thumb2/libgcc.a(_aeabi_uldivmod.o)
                0x08008f9c                __aeabi_uldivmod
 .text          0x08008fc8       0x58 /usr/local/bin/../lib/gcc/arm-none-eabi/4.4.1/thumb2/libgcc.a(bpabi.o)
                0x08008fc8                __gnu_uldivmod_helper
                0x08008ff4                __gnu_ldivmod_helper
 .text          0x08009020        0x4 /usr/local/bin/../lib/gcc/arm-none-eabi/4.4.1/thumb2/libgcc.a(_dvmd_tls.o)
                0x08009020                __aeabi_ldiv0
                0x08009020                __aeabi_idiv0
 .text          0x08009024      0x364 /usr/local/bin/../lib/gcc/arm-none-eabi/4.4.1/thumb2/libgcc.a(_divdi3.o)
                0x08009024                __divdi3
 .text          0x08009388      0x300 /usr/local/bin/../lib/gcc/arm-none-eabi/4.4.1/thumb2/libgcc.a(_udivdi3.o)
                0x08009388                __udivdi3
 .text          0x08009688      0x278 /usr/local/bin/../lib/gcc/arm-none-eabi/4.4.1/thumb2/libgcc.a(_udivsi3.o)
                0x08009688                __udivsi3
                0x08009688                __aeabi_uidiv
                0x080098e4                __aeabi_uidivmod
 .text.__errno  0x08009900        0xc /usr/local/bin/../lib/gcc/arm-none-eabi/4.4.1/../../../../arm-none-eabi/lib/thumb2/libc.a(lib_a-errno.o)
                0x08009900                __errno
 .text.__libc_init_array
                0x0800990c       0x4c /usr/local/bin/../lib/gcc/arm-none-eabi/4.4.1/../../../../arm-none-eabi/lib/thumb2/libc.a(lib_a-init.o)
                0x0800990c                __libc_init_array
 .text.isalnum  0x08009958       0x14 /usr/local/bin/../lib/gcc/arm-none-eabi/4.4.1/../../../../arm-none-eabi/lib/thumb2/libc.a(lib_a-isalnum.o)
                0x08009958                isalnum
 .text.isspace  0x0800996c       0x14 /usr/local/bin/../lib/gcc/arm-none-eabi/4.4.1/../../../../arm-none-eabi/lib/thumb2/libc.a(lib_a-isspace.o)
                0x0800996c                isspace
 .text.free     0x08009980       0x10 /usr/local/bin/../lib/gcc/arm-none-eabi/4.4.1/../../../../arm-none-eabi/lib/thumb2/libc.a(lib_a-malloc.o)
                0x08009980                free
 .text.malloc   0x08009990       0x10 /usr/local/bin/../lib/gcc/arm-none-eabi/4.4.1/../../../../arm-none-eabi/lib/thumb2/libc.a(lib_a-malloc.o)
                0x08009990                malloc
 .text._malloc_r
                0x080099a0      0x424 /usr/local/bin/../lib/gcc/arm-none-eabi/4.4.1/../../../../arm-none-eabi/lib/thumb2/libc.a(lib_a-mallocr.o)
                0x080099a0                _malloc_r
 .text.memcpy   0x08009dc4       0x1a /usr/local/bin/../lib/gcc/arm-none-eabi/4.4.1/../../../../arm-none-eabi/lib/thumb2/libc.a(lib_a-memcpy.o)
                0x08009dc4                memcpy
 .text.memset   0x08009dde       0x12 /usr/local/bin/../lib/gcc/arm-none-eabi/4.4.1/../../../../arm-none-eabi/lib/thumb2/libc.a(lib_a-memset.o)
                0x08009dde                memset
 .text.__malloc_lock
                0x08009df0        0x2 /usr/local/bin/../lib/gcc/arm-none-eabi/4.4.1/../../../../arm-none-eabi/lib/thumb2/libc.a(lib_a-mlock.o)
                0x08009df0                __malloc_lock
 .text.__malloc_unlock
                0x08009df2        0x2 /usr/local/bin/../lib/gcc/arm-none-eabi/4.4.1/../../../../arm-none-eabi/lib/thumb2/libc.a(lib_a-mlock.o)
                0x08009df2                __malloc_unlock
 .text._sbrk_r  0x08009df4       0x24 /usr/local/bin/../lib/gcc/arm-none-eabi/4.4.1/../../../../arm-none-eabi/lib/thumb2/libc.a(lib_a-sbrkr.o)
                0x08009df4                _sbrk_r
 .text.strchr   0x08009e18       0x18 /usr/local/bin/../lib/gcc/arm-none-eabi/4.4.1/../../../../arm-none-eabi/lib/thumb2/libc.a(lib_a-strchr.o)
                0x08009e18                strchr
 .text.strcmp   0x08009e30       0x16 /usr/local/bin/../lib/gcc/arm-none-eabi/4.4.1/../../../../arm-none-eabi/lib/thumb2/libc.a(lib_a-strcmp.o)
                0x08009e30                strcmp
 .text.strcpy   0x08009e46       0x10 /usr/local/bin/../lib/gcc/arm-none-eabi/4.4.1/../../../../arm-none-eabi/lib/thumb2/libc.a(lib_a-strcpy.o)
                0x08009e46                strcpy
 .text.strlen   0x08009e56       0x10 /usr/local/bin/../lib/gcc/arm-none-eabi/4.4.1/../../../../arm-none-eabi/lib/thumb2/libc.a(lib_a-strlen.o)
                0x08009e56                strlen
 .text.strncat  0x08009e66       0x26 /usr/local/bin/../lib/gcc/arm-none-eabi/4.4.1/../../../../arm-none-eabi/lib/thumb2/libc.a(lib_a-strncat.o)
                0x08009e66                strncat
 .text.strncmp  0x08009e8c       0x2e /usr/local/bin/../lib/gcc/arm-none-eabi/4.4.1/../../../../arm-none-eabi/lib/thumb2/libc.a(lib_a-strncmp.o)
                0x08009e8c                strncmp
 .text.strncpy  0x08009eba       0x30 /usr/local/bin/../lib/gcc/arm-none-eabi/4.4.1/../../../../arm-none-eabi/lib/thumb2/libc.a(lib_a-strncpy.o)
                0x08009eba                strncpy
 .text.strrchr  0x08009eea       0x2c /usr/local/bin/../lib/gcc/arm-none-eabi/4.4.1/../../../../arm-none-eabi/lib/thumb2/libc.a(lib_a-strrchr.o)
                0x08009eea                strrchr
 .text.strstr   0x08009f16       0x28 /usr/local/bin/../lib/gcc/arm-none-eabi/4.4.1/../../../../arm-none-eabi/lib/thumb2/libc.a(lib_a-strstr.o)
                0x08009f16                strstr
 *fill*         0x08009f3e        0x2 00
 .text.strupr   0x08009f40       0x24 /usr/local/bin/../lib/gcc/arm-none-eabi/4.4.1/../../../../arm-none-eabi/lib/thumb2/libc.a(lib_a-strupr.o)
                0x08009f40                strupr
 .text._malloc_trim_r
                0x08009f64       0x98 /usr/local/bin/../lib/gcc/arm-none-eabi/4.4.1/../../../../arm-none-eabi/lib/thumb2/libc.a(lib_a-freer.o)
                0x08009f64                _malloc_trim_r
 .text._free_r  0x08009ffc      0x19c /usr/local/bin/../lib/gcc/arm-none-eabi/4.4.1/../../../../arm-none-eabi/lib/thumb2/libc.a(lib_a-freer.o)
                0x08009ffc                _free_r
 *(.plt)
 *(.gnu.warning)
 *(.glue_7t)
 .glue_7t       0x00000000        0x0 linker stubs
 *(.glue_7)
 .glue_7        0x00000000        0x0 linker stubs
 *(.vfp11_veneer)
 .vfp11_veneer  0x00000000        0x0 linker stubs
 *(.ARM.extab* .gnu.linkonce.armextab.*)
 *(.gcc_except_table)
 *(.eh_frame_hdr)
 *(.eh_frame)
                0x0800a198                . = ALIGN (0x4)
 *(.init)
 .init          0x0800a198        0x4 /usr/local/bin/../lib/gcc/arm-none-eabi/4.4.1/thumb2/crti.o
                0x0800a198                _init
 .init          0x0800a19c        0x8 /usr/local/bin/../lib/gcc/arm-none-eabi/4.4.1/thumb2/crtn.o
                0x0800a1a4                . = ALIGN (0x4)
                0x0800a1a4                __preinit_array_start = .
 *(.preinit_array)
                0x0800a1a4                __preinit_array_end = .
                0x0800a1a4                . = ALIGN (0x4)
                0x0800a1a4                __init_array_start = .
 *(SORT(.init_array.*))
 *(.init_array)
 .init_array    0x0800a1a4        0x4 /usr/local/bin/../lib/gcc/arm-none-eabi/4.4.1/thumb2/crtbegin.o
 .init_array    0x0800a1a8        0x4 build//Users/marcus/Dropbox/Studienarbeit/Sourcecode/StudienarbeitX/Library/libmaple/wirish/HardwareSerial.o
 .init_array    0x0800a1ac        0x4 build//Users/marcus/Dropbox/Studienarbeit/Sourcecode/StudienarbeitX/Library/libmaple/wirish/HardwareTimer.o
 .init_array    0x0800a1b0        0x4 build//Users/marcus/Dropbox/Studienarbeit/Sourcecode/StudienarbeitX/Library/libmaple/wirish/usb_serial.o
 .init_array    0x0800a1b4        0x4 build//Users/marcus/Dropbox/Studienarbeit/Sourcecode/StudienarbeitX/Library/libmaple/wirish/boards/maple/board.o
 .init_array    0x0800a1b8        0x8 build//Users/marcus/Dropbox/Studienarbeit/Sourcecode/StudienarbeitX/TWS-HelloWorld.o
                0x0800a1c0                __init_array_end = .
                0x0800a1c0                . = ALIGN (0x4)
 *crtbegin.o(.ctors)
 *(EXCLUDE_FILE(*crtend.o) .ctors)
 *(SORT(.ctors.*))
 *crtend.o(.ctors)
                0x0800a1c0                . = ALIGN (0x4)
 *(.fini)
 .fini          0x0800a1c0        0x4 /usr/local/bin/../lib/gcc/arm-none-eabi/4.4.1/thumb2/crti.o
                0x0800a1c0                _fini
 .fini          0x0800a1c4        0x8 /usr/local/bin/../lib/gcc/arm-none-eabi/4.4.1/thumb2/crtn.o
                0x0800a1cc                . = ALIGN (0x4)
                0x0800a1cc                __fini_array_start = .
 *(.fini_array)
 .fini_array    0x0800a1cc        0x4 /usr/local/bin/../lib/gcc/arm-none-eabi/4.4.1/thumb2/crtbegin.o
 *(SORT(.fini_array.*))
                0x0800a1d0                __fini_array_end = .
 *crtbegin.o(.dtors)
 *(EXCLUDE_FILE(*crtend.o) .dtors)
 *(SORT(.dtors.*))
 *crtend.o(.dtors)

.v4_bx          0x0800a1d0        0x0
 .v4_bx         0x00000000        0x0 linker stubs

.text.align     0x0800a1d0        0x0
                0x0800a1d0                . = ALIGN (0x8)
                0x0800a1d0                _etext = .
                0x0800a1d0                __exidx_start = .

.ARM.exidx      0x0800a1d0        0x8
 *(.ARM.exidx* .gnu.linkonce.armexidx.*)
 .ARM.exidx     0x0800a1d0        0x8 build//Users/marcus/Dropbox/Studienarbeit/Sourcecode/StudienarbeitX/Library/libmaple/wirish/start.o
 .ARM.exidx     0x0800a1d8        0x0 /usr/local/bin/../lib/gcc/arm-none-eabi/4.4.1/thumb2/libgcc.a(_divdi3.o)
                                  0x8 (size before relaxing)
 .ARM.exidx     0x0800a1d8        0x0 /usr/local/bin/../lib/gcc/arm-none-eabi/4.4.1/thumb2/libgcc.a(_udivdi3.o)
                                  0x8 (size before relaxing)
                0x0800a1d8                __exidx_end = .

.data           0x20000c00      0xcf0 load address 0x0800a1d8
                0x20000c00                . = ALIGN (0x8)
                0x20000c00                _data = .
 *(.got.plt)
 *(.got)
 *(.data .data.* .gnu.linkonce.d.*)
 .data.exti_channels
                0x20000c00       0x80 build//Users/marcus/Dropbox/Studienarbeit/Sourcecode/StudienarbeitX/Library/libmaple/libmaple/exti.o
 .data.timer3   0x20000c80       0x24 build//Users/marcus/Dropbox/Studienarbeit/Sourcecode/StudienarbeitX/Library/libmaple/libmaple/timer.o
 .data.timer4   0x20000ca4       0x24 build//Users/marcus/Dropbox/Studienarbeit/Sourcecode/StudienarbeitX/Library/libmaple/libmaple/timer.o
 .data.TIMER1   0x20000cc8        0x4 build//Users/marcus/Dropbox/Studienarbeit/Sourcecode/StudienarbeitX/Library/libmaple/libmaple/timer.o
                0x20000cc8                TIMER1
 .data.TIMER2   0x20000ccc        0x4 build//Users/marcus/Dropbox/Studienarbeit/Sourcecode/StudienarbeitX/Library/libmaple/libmaple/timer.o
                0x20000ccc                TIMER2
 .data.TIMER3   0x20000cd0        0x4 build//Users/marcus/Dropbox/Studienarbeit/Sourcecode/StudienarbeitX/Library/libmaple/libmaple/timer.o
                0x20000cd0                TIMER3
 .data.TIMER4   0x20000cd4        0x4 build//Users/marcus/Dropbox/Studienarbeit/Sourcecode/StudienarbeitX/Library/libmaple/libmaple/timer.o
                0x20000cd4                TIMER4
 .data.timer1   0x20000cd8       0x28 build//Users/marcus/Dropbox/Studienarbeit/Sourcecode/StudienarbeitX/Library/libmaple/libmaple/timer.o
 .data.timer2   0x20000d00       0x24 build//Users/marcus/Dropbox/Studienarbeit/Sourcecode/StudienarbeitX/Library/libmaple/libmaple/timer.o
 .data.USBLIB   0x20000d24        0x4 build//Users/marcus/Dropbox/Studienarbeit/Sourcecode/StudienarbeitX/Library/libmaple/libmaple/usb/stm32f1/usb.o
                0x20000d24                USBLIB
 .data.usblib   0x20000d28       0x10 build//Users/marcus/Dropbox/Studienarbeit/Sourcecode/StudienarbeitX/Library/libmaple/libmaple/usb/stm32f1/usb.o
 .data.Device_Descriptor
                0x20000d38        0x8 build//Users/marcus/Dropbox/Studienarbeit/Sourcecode/StudienarbeitX/Library/libmaple/libmaple/usb/stm32f1/usb_cdcacm.o
                0x20000d38                Device_Descriptor
 .data.Config_Descriptor
                0x20000d40        0x8 build//Users/marcus/Dropbox/Studienarbeit/Sourcecode/StudienarbeitX/Library/libmaple/libmaple/usb/stm32f1/usb_cdcacm.o
                0x20000d40                Config_Descriptor
 .data.User_Standard_Requests
                0x20000d48       0x24 build//Users/marcus/Dropbox/Studienarbeit/Sourcecode/StudienarbeitX/Library/libmaple/libmaple/usb/stm32f1/usb_cdcacm.o
                0x20000d48                User_Standard_Requests
 .data.ep_int_in
                0x20000d6c       0x1c build//Users/marcus/Dropbox/Studienarbeit/Sourcecode/StudienarbeitX/Library/libmaple/libmaple/usb/stm32f1/usb_cdcacm.o
 .data.ep_int_out
                0x20000d88       0x1c build//Users/marcus/Dropbox/Studienarbeit/Sourcecode/StudienarbeitX/Library/libmaple/libmaple/usb/stm32f1/usb_cdcacm.o
 .data.maxNewBytes
                0x20000da4        0x4 build//Users/marcus/Dropbox/Studienarbeit/Sourcecode/StudienarbeitX/Library/libmaple/libmaple/usb/stm32f1/usb_cdcacm.o
                0x20000da4                maxNewBytes
 .data.line_coding
                0x20000da8        0x8 build//Users/marcus/Dropbox/Studienarbeit/Sourcecode/StudienarbeitX/Library/libmaple/libmaple/usb/stm32f1/usb_cdcacm.o
                0x20000da8                line_coding
 .data.String_Descriptor
                0x20000db0       0x18 build//Users/marcus/Dropbox/Studienarbeit/Sourcecode/StudienarbeitX/Library/libmaple/libmaple/usb/stm32f1/usb_cdcacm.o
                0x20000db0                String_Descriptor
 .data.Device_Property
                0x20000dc8       0x30 build//Users/marcus/Dropbox/Studienarbeit/Sourcecode/StudienarbeitX/Library/libmaple/libmaple/usb/stm32f1/usb_cdcacm.o
                0x20000dc8                Device_Property
 .data.Device_Table
                0x20000df8        0x4 build//Users/marcus/Dropbox/Studienarbeit/Sourcecode/StudienarbeitX/Library/libmaple/libmaple/usb/stm32f1/usb_cdcacm.o
                0x20000df8                Device_Table
 .data.adc1     0x20000dfc        0x8 build//Users/marcus/Dropbox/Studienarbeit/Sourcecode/StudienarbeitX/Library/libmaple/libmaple/stm32f1/adc.o
 .data.adc2     0x20000e04        0x8 build//Users/marcus/Dropbox/Studienarbeit/Sourcecode/StudienarbeitX/Library/libmaple/libmaple/stm32f1/adc.o
 .data.ADC1     0x20000e0c        0x4 build//Users/marcus/Dropbox/Studienarbeit/Sourcecode/StudienarbeitX/Library/libmaple/libmaple/stm32f1/adc.o
                0x20000e0c                ADC1
 .data.ADC2     0x20000e10        0x4 build//Users/marcus/Dropbox/Studienarbeit/Sourcecode/StudienarbeitX/Library/libmaple/libmaple/stm32f1/adc.o
                0x20000e10                ADC2
 .data.DMA1     0x20000e14        0x4 build//Users/marcus/Dropbox/Studienarbeit/Sourcecode/StudienarbeitX/Library/libmaple/libmaple/stm32f1/dma.o
                0x20000e14                DMA1
 .data.dma1     0x20000e18       0x40 build//Users/marcus/Dropbox/Studienarbeit/Sourcecode/StudienarbeitX/Library/libmaple/libmaple/stm32f1/dma.o
 .data.gpioa    0x20000e58        0x8 build//Users/marcus/Dropbox/Studienarbeit/Sourcecode/StudienarbeitX/Library/libmaple/libmaple/stm32f1/gpio.o
                0x20000e58                gpioa
 .data.gpiob    0x20000e60        0x8 build//Users/marcus/Dropbox/Studienarbeit/Sourcecode/StudienarbeitX/Library/libmaple/libmaple/stm32f1/gpio.o
                0x20000e60                gpiob
 .data.gpioc    0x20000e68        0x8 build//Users/marcus/Dropbox/Studienarbeit/Sourcecode/StudienarbeitX/Library/libmaple/libmaple/stm32f1/gpio.o
                0x20000e68                gpioc
 .data.gpiod    0x20000e70        0x8 build//Users/marcus/Dropbox/Studienarbeit/Sourcecode/StudienarbeitX/Library/libmaple/libmaple/stm32f1/gpio.o
                0x20000e70                gpiod
 .data.i2c1     0x20000e78       0x24 build//Users/marcus/Dropbox/Studienarbeit/Sourcecode/StudienarbeitX/Library/libmaple/libmaple/stm32f1/i2c.o
 .data.i2c2     0x20000e9c       0x24 build//Users/marcus/Dropbox/Studienarbeit/Sourcecode/StudienarbeitX/Library/libmaple/libmaple/stm32f1/i2c.o
 .data.enable_regs.1593
                0x20000ec0        0xc build//Users/marcus/Dropbox/Studienarbeit/Sourcecode/StudienarbeitX/Library/libmaple/libmaple/stm32f1/rcc.o
 .data.reset_regs.1597
                0x20000ecc        0x8 build//Users/marcus/Dropbox/Studienarbeit/Sourcecode/StudienarbeitX/Library/libmaple/libmaple/stm32f1/rcc.o
 .data.spi1     0x20000ed4        0x8 build//Users/marcus/Dropbox/Studienarbeit/Sourcecode/StudienarbeitX/Library/libmaple/libmaple/stm32f1/spi.o
 .data.spi2     0x20000edc        0x8 build//Users/marcus/Dropbox/Studienarbeit/Sourcecode/StudienarbeitX/Library/libmaple/libmaple/stm32f1/spi.o
 .data.SPI1     0x20000ee4        0x4 build//Users/marcus/Dropbox/Studienarbeit/Sourcecode/StudienarbeitX/Library/libmaple/libmaple/stm32f1/spi.o
                0x20000ee4                SPI1
 .data.SPI2     0x20000ee8        0x4 build//Users/marcus/Dropbox/Studienarbeit/Sourcecode/StudienarbeitX/Library/libmaple/libmaple/stm32f1/spi.o
                0x20000ee8                SPI2
 .data.USART1   0x20000eec        0x4 build//Users/marcus/Dropbox/Studienarbeit/Sourcecode/StudienarbeitX/Library/libmaple/libmaple/stm32f1/usart.o
                0x20000eec                USART1
 .data.USART2   0x20000ef0        0x4 build//Users/marcus/Dropbox/Studienarbeit/Sourcecode/StudienarbeitX/Library/libmaple/libmaple/stm32f1/usart.o
                0x20000ef0                USART2
 .data.USART3   0x20000ef4        0x4 build//Users/marcus/Dropbox/Studienarbeit/Sourcecode/StudienarbeitX/Library/libmaple/libmaple/stm32f1/usart.o
                0x20000ef4                USART3
 .data.usart1   0x20000ef8       0x50 build//Users/marcus/Dropbox/Studienarbeit/Sourcecode/StudienarbeitX/Library/libmaple/libmaple/stm32f1/usart.o
 .data.usart2   0x20000f48       0x50 build//Users/marcus/Dropbox/Studienarbeit/Sourcecode/StudienarbeitX/Library/libmaple/libmaple/stm32f1/usart.o
 .data.usart3   0x20000f98       0x50 build//Users/marcus/Dropbox/Studienarbeit/Sourcecode/StudienarbeitX/Library/libmaple/libmaple/stm32f1/usart.o
 .data._ZN6wirish4privL8pll_dataE
                0x20000fe8        0x4 build//Users/marcus/Dropbox/Studienarbeit/Sourcecode/StudienarbeitX/Library/libmaple/wirish/stm32f1/boards_setup.o
 .data._ZN6wirish4priv9w_adc_smpE
                0x20000fec        0x1 build//Users/marcus/Dropbox/Studienarbeit/Sourcecode/StudienarbeitX/Library/libmaple/wirish/stm32f1/boards_setup.o
                0x20000fec                _ZN6wirish4priv9w_adc_smpE
 *fill*         0x20000fed        0x1 00
 .data._ZN6wirish4priv9w_adc_preE
                0x20000fee        0x2 build//Users/marcus/Dropbox/Studienarbeit/Sourcecode/StudienarbeitX/Library/libmaple/wirish/stm32f1/boards_setup.o
                0x20000fee                _ZN6wirish4priv9w_adc_preE
 .data._ZN6wirish4priv15w_board_pll_cfgE
                0x20000ff0        0x8 build//Users/marcus/Dropbox/Studienarbeit/Sourcecode/StudienarbeitX/Library/libmaple/wirish/stm32f1/boards_setup.o
                0x20000ff0                _ZN6wirish4priv15w_board_pll_cfgE
 .data.PIN_MAP  0x20000ff8      0x2c0 build//Users/marcus/Dropbox/Studienarbeit/Sourcecode/StudienarbeitX/Library/libmaple/wirish/boards/maple/board.o
                0x20000ff8                PIN_MAP
 .data.SPI_Uart_config
                0x200012b8        0x4 build//Users/marcus/Dropbox/Studienarbeit/Sourcecode/StudienarbeitX/Library/WiFlySerial/SpiUart.o
                0x200012b8                SPI_Uart_config
 .data.WiFlyDevice_string_table
                0x200012bc       0xe8 build//Users/marcus/Dropbox/Studienarbeit/Sourcecode/StudienarbeitX/Library/WiFlySerial/WiFlySerial.o
                0x200012bc                WiFlyDevice_string_table
 .data._ZL17WiFlyFixedPrompts
                0x200013a4       0x24 build//Users/marcus/Dropbox/Studienarbeit/Sourcecode/StudienarbeitX/Library/WiFlySerial/WiFlySerial.o
 .data.handlers
                0x200013c8       0x18 build//Users/marcus/Dropbox/Studienarbeit/Sourcecode/StudienarbeitX/TWS-HelloWorld.o
                0x200013c8                handlers
 .data.headers  0x200013e0        0x8 build//Users/marcus/Dropbox/Studienarbeit/Sourcecode/StudienarbeitX/TWS-HelloWorld.o
                0x200013e0                headers
 .data.impure_data
                0x200013e8       0xf0 /usr/local/bin/../lib/gcc/arm-none-eabi/4.4.1/../../../../arm-none-eabi/lib/thumb2/libc.a(lib_a-impure.o)
 .data._impure_ptr
                0x200014d8        0x4 /usr/local/bin/../lib/gcc/arm-none-eabi/4.4.1/../../../../arm-none-eabi/lib/thumb2/libc.a(lib_a-impure.o)
                0x200014d8                _impure_ptr
 .data.__malloc_av_
                0x200014dc      0x408 /usr/local/bin/../lib/gcc/arm-none-eabi/4.4.1/../../../../arm-none-eabi/lib/thumb2/libc.a(lib_a-mallocr.o)
                0x200014dc                __malloc_av_
 .data.__malloc_trim_threshold
                0x200018e4        0x4 /usr/local/bin/../lib/gcc/arm-none-eabi/4.4.1/../../../../arm-none-eabi/lib/thumb2/libc.a(lib_a-mallocr.o)
                0x200018e4                __malloc_trim_threshold
 .data.__malloc_sbrk_base
                0x200018e8        0x4 /usr/local/bin/../lib/gcc/arm-none-eabi/4.4.1/../../../../arm-none-eabi/lib/thumb2/libc.a(lib_a-mallocr.o)
                0x200018e8                __malloc_sbrk_base
 .data.__ctype_ptr__
                0x200018ec        0x4 /usr/local/bin/../lib/gcc/arm-none-eabi/4.4.1/../../../../arm-none-eabi/lib/thumb2/libc.a(lib_a-ctype_.o)
                0x200018ec                __ctype_ptr__
                0x200018f0                . = ALIGN (0x8)
                0x200018f0                _edata = .

.jcr            0x200018f0        0x0 load address 0x0800aec8
 .jcr           0x200018f0        0x0 /usr/local/bin/../lib/gcc/arm-none-eabi/4.4.1/thumb2/crtbegin.o

.rodata         0x0800aec8      0xd14
 *(.rodata .rodata.* .gnu.linkonce.r.*)
 .rodata.str1.1
                0x0800aec8       0xb6 build//Users/marcus/Dropbox/Studienarbeit/Sourcecode/StudienarbeitX/Library/libmaple/libmaple/timer.o
                                 0xb8 (size before relaxing)
 .rodata.str1.1
                0x0800af7e       0x3f build//Users/marcus/Dropbox/Studienarbeit/Sourcecode/StudienarbeitX/Library/libmaple/libmaple/util.o
                                 0x42 (size before relaxing)
 .rodata.str1.1
                0x0800afbd       0x9a build//Users/marcus/Dropbox/Studienarbeit/Sourcecode/StudienarbeitX/Library/libmaple/libmaple/i2c.o
                                 0x9c (size before relaxing)
 .rodata.str1.1
                0x0800b057       0x7e build//Users/marcus/Dropbox/Studienarbeit/Sourcecode/StudienarbeitX/Library/libmaple/libmaple/usb/stm32f1/usb.o
 *fill*         0x0800b0d5        0x3 00
 .rodata.usbVcomDescriptor_iProduct
                0x0800b0d8       0x14 build//Users/marcus/Dropbox/Studienarbeit/Sourcecode/StudienarbeitX/Library/libmaple/libmaple/usb/stm32f1/usb_cdcacm.o
                0x0800b0d8                usbVcomDescriptor_iProduct
 .rodata.usbVcomDescriptor_iManufacturer
                0x0800b0ec       0x14 build//Users/marcus/Dropbox/Studienarbeit/Sourcecode/StudienarbeitX/Library/libmaple/libmaple/usb/stm32f1/usb_cdcacm.o
                0x0800b0ec                usbVcomDescriptor_iManufacturer
 .rodata.usbVcomDescriptor_Device
                0x0800b100       0x14 build//Users/marcus/Dropbox/Studienarbeit/Sourcecode/StudienarbeitX/Library/libmaple/libmaple/usb/stm32f1/usb_cdcacm.o
                0x0800b100                usbVcomDescriptor_Device
 .rodata.usbVcomDescriptor_Config
                0x0800b114       0x44 build//Users/marcus/Dropbox/Studienarbeit/Sourcecode/StudienarbeitX/Library/libmaple/libmaple/usb/stm32f1/usb_cdcacm.o
                0x0800b114                usbVcomDescriptor_Config
 .rodata.usbVcomDescriptor_LangID
                0x0800b158        0x4 build//Users/marcus/Dropbox/Studienarbeit/Sourcecode/StudienarbeitX/Library/libmaple/libmaple/usb/stm32f1/usb_cdcacm.o
                0x0800b158                usbVcomDescriptor_LangID
 .rodata.GPIOA  0x0800b15c        0x4 build//Users/marcus/Dropbox/Studienarbeit/Sourcecode/StudienarbeitX/Library/libmaple/libmaple/stm32f1/gpio.o
                0x0800b15c                GPIOA
 .rodata.GPIOB  0x0800b160        0x4 build//Users/marcus/Dropbox/Studienarbeit/Sourcecode/StudienarbeitX/Library/libmaple/libmaple/stm32f1/gpio.o
                0x0800b160                GPIOB
 .rodata.GPIOC  0x0800b164        0x4 build//Users/marcus/Dropbox/Studienarbeit/Sourcecode/StudienarbeitX/Library/libmaple/libmaple/stm32f1/gpio.o
                0x0800b164                GPIOC
 .rodata.GPIOD  0x0800b168        0x4 build//Users/marcus/Dropbox/Studienarbeit/Sourcecode/StudienarbeitX/Library/libmaple/libmaple/stm32f1/gpio.o
                0x0800b168                GPIOD
 .rodata.masks.1602
                0x0800b16c       0x14 build//Users/marcus/Dropbox/Studienarbeit/Sourcecode/StudienarbeitX/Library/libmaple/libmaple/stm32f1/rcc.o
 .rodata.str1.1
                0x0800b180       0xbc build//Users/marcus/Dropbox/Studienarbeit/Sourcecode/StudienarbeitX/Library/libmaple/libmaple/stm32f1/rcc.o
 .rodata.rcc_dev_table
                0x0800b23c       0x5c build//Users/marcus/Dropbox/Studienarbeit/Sourcecode/StudienarbeitX/Library/libmaple/libmaple/stm32f1/rcc.o
                0x0800b23c                rcc_dev_table
 .rodata.str1.1
                0x0800b298       0x74 build//Users/marcus/Dropbox/Studienarbeit/Sourcecode/StudienarbeitX/Library/libmaple/libmaple/stm32f1/usart.o
 *fill*         0x0800b30c        0x4 00
 .rodata._ZTV14HardwareSerial
                0x0800b310       0x18 build//Users/marcus/Dropbox/Studienarbeit/Sourcecode/StudienarbeitX/Library/libmaple/wirish/HardwareSerial.o
                0x0800b310                _ZTV14HardwareSerial
 .rodata.str1.1
                0x0800b328       0x7a build//Users/marcus/Dropbox/Studienarbeit/Sourcecode/StudienarbeitX/Library/libmaple/wirish/HardwareTimer.o
 *fill*         0x0800b3a2        0x6 00
 .rodata._ZTV5Print
                0x0800b3a8       0x18 build//Users/marcus/Dropbox/Studienarbeit/Sourcecode/StudienarbeitX/Library/libmaple/wirish/Print.o
                0x0800b3a8                _ZTV5Print
 .rodata._ZTV9USBSerial
                0x0800b3c0       0x18 build//Users/marcus/Dropbox/Studienarbeit/Sourcecode/StudienarbeitX/Library/libmaple/wirish/usb_serial.o
                0x0800b3c0                _ZTV9USBSerial
 .rodata.str1.1
                0x0800b3d8       0x66 build//Users/marcus/Dropbox/Studienarbeit/Sourcecode/StudienarbeitX/Library/libmaple/wirish/HardwareSPI.o
                                 0x68 (size before relaxing)
 *fill*         0x0800b43e        0x2 00
 .rodata.CSWTCH.32
                0x0800b440        0x8 build//Users/marcus/Dropbox/Studienarbeit/Sourcecode/StudienarbeitX/Library/libmaple/wirish/HardwareSPI.o
 .rodata.str1.1
                0x0800b448       0x71 build//Users/marcus/Dropbox/Studienarbeit/Sourcecode/StudienarbeitX/Library/libmaple/wirish/stm32f1/wirish_digital.o
                                 0x73 (size before relaxing)
 .rodata.str1.1
                0x0800b4b9      0x13a build//Users/marcus/Dropbox/Studienarbeit/Sourcecode/StudienarbeitX/Library/TinyWebServer/TinyWebServer.o
 *fill*         0x0800b5f3        0x5 00
 .rodata._ZTV13TinyWebServer
                0x0800b5f8       0x20 build//Users/marcus/Dropbox/Studienarbeit/Sourcecode/StudienarbeitX/Library/TinyWebServer/TinyWebServer.o
                0x0800b5f8                _ZTV13TinyWebServer
 .rodata._ZTV13SpiUartDevice
                0x0800b618       0x18 build//Users/marcus/Dropbox/Studienarbeit/Sourcecode/StudienarbeitX/Library/WiFlySerial/SpiUart.o
                0x0800b618                _ZTV13SpiUartDevice
 .rodata._ZTV11WiFlySerial
                0x0800b630       0x28 build//Users/marcus/Dropbox/Studienarbeit/Sourcecode/StudienarbeitX/Library/WiFlySerial/WiFlySerial.o
                0x0800b630                _ZTV11WiFlySerial
 .rodata._ZL15WiFlyFixedFlags
                0x0800b658        0xc build//Users/marcus/Dropbox/Studienarbeit/Sourcecode/StudienarbeitX/Library/WiFlySerial/WiFlySerial.o
 .rodata.str1.1
                0x0800b664       0xca build//Users/marcus/Dropbox/Studienarbeit/Sourcecode/StudienarbeitX/Library/WiFlySerial/WiFlySerial.o
                                 0xd7 (size before relaxing)
 *fill*         0x0800b72e        0x2 00
 .rodata._ZTV11WFSEthernet
                0x0800b730       0x18 build//Users/marcus/Dropbox/Studienarbeit/Sourcecode/StudienarbeitX/Library/WiFlySerial/WFSEthernet.o
                0x0800b730                _ZTV11WFSEthernet
 .rodata.str1.1
                0x0800b748       0x3a build//Users/marcus/Dropbox/Studienarbeit/Sourcecode/StudienarbeitX/Library/WiFlySerial/WFSEthernetServer.o
                                 0x42 (size before relaxing)
 *fill*         0x0800b782        0x6 00
 .rodata._ZTV17WFSEthernetServer
                0x0800b788       0x10 build//Users/marcus/Dropbox/Studienarbeit/Sourcecode/StudienarbeitX/Library/WiFlySerial/WFSEthernetServer.o
                0x0800b788                _ZTV17WFSEthernetServer
 .rodata._ZTV17WFSEthernetClient
                0x0800b798       0x40 build//Users/marcus/Dropbox/Studienarbeit/Sourcecode/StudienarbeitX/Library/WiFlySerial/WFSEthernetClient.o
                0x0800b798                _ZTV17WFSEthernetClient
 .rodata.str1.1
                0x0800b7d8       0x75 build//Users/marcus/Dropbox/Studienarbeit/Sourcecode/StudienarbeitX/TWS-HelloWorld.o
                                 0x84 (size before relaxing)
 .rodata.str1.1
                0x00000000       0x75 /usr/local/bin/../lib/gcc/arm-none-eabi/4.4.1/../../../../arm-none-eabi/lib/thumb2/libc.a(lib_a-impure.o)
                                  0x2 (size before relaxing)
 *fill*         0x0800b84d        0x3 00
 .rodata._ctype_
                0x0800b850      0x104 /usr/local/bin/../lib/gcc/arm-none-eabi/4.4.1/../../../../arm-none-eabi/lib/thumb2/libc.a(lib_a-ctype_.o)
                0x0800b850                _ctype_
 *(.USER_FLASH)
 .USER_FLASH    0x0800b954       0x10 build//Users/marcus/Dropbox/Studienarbeit/Sourcecode/StudienarbeitX/Library/libmaple/wirish/HardwareSPI.o
 .USER_FLASH    0x0800b964      0x274 build//Users/marcus/Dropbox/Studienarbeit/Sourcecode/StudienarbeitX/Library/WiFlySerial/WiFlySerial.o
                0x0800bbd8                . = ALIGN (0x4)
                0x0800bbd8                _lm_rom_img_cfgp = .
                0x0800bbd8        0x4 LONG 0x800a1d8 LOADADDR (.data)
                [0x20001bf0]                _lm_heap_start = DEFINED (_lm_heap_start)?_lm_heap_start:_end
                [0x20005000]                _lm_heap_end = DEFINED (_lm_heap_end)?_lm_heap_end:__msp_init

.bss            0x200018f0      0x300
                0x200018f0                . = ALIGN (0x8)
                0x200018f0                _bss = .
 *(.bss .bss.* .gnu.linkonce.b.*)
 .bss           0x200018f0        0x1 /usr/local/bin/../lib/gcc/arm-none-eabi/4.4.1/thumb2/crtbegin.o
 *fill*         0x200018f1        0x3 00
 .bss.systick_user_callback
                0x200018f4        0x4 build//Users/marcus/Dropbox/Studienarbeit/Sourcecode/StudienarbeitX/Library/libmaple/libmaple/systick.o
 .bss.line_dtr_rts
                0x200018f8        0x1 build//Users/marcus/Dropbox/Studienarbeit/Sourcecode/StudienarbeitX/Library/libmaple/libmaple/usb/stm32f1/usb_cdcacm.o
                0x200018f8                line_dtr_rts
 *fill*         0x200018f9        0x3 00
 .bss.recvBufOut
                0x200018fc        0x4 build//Users/marcus/Dropbox/Studienarbeit/Sourcecode/StudienarbeitX/Library/libmaple/libmaple/usb/stm32f1/usb_cdcacm.o
                0x200018fc                recvBufOut
 .bss.reset_state
                0x20001900        0x1 build//Users/marcus/Dropbox/Studienarbeit/Sourcecode/StudienarbeitX/Library/libmaple/libmaple/usb/stm32f1/usb_cdcacm.o
                0x20001900                reset_state
 *fill*         0x20001901        0x3 00
 .bss.newBytes  0x20001904        0x4 build//Users/marcus/Dropbox/Studienarbeit/Sourcecode/StudienarbeitX/Library/libmaple/libmaple/usb/stm32f1/usb_cdcacm.o
                0x20001904                newBytes
 .bss.countTx   0x20001908        0x4 build//Users/marcus/Dropbox/Studienarbeit/Sourcecode/StudienarbeitX/Library/libmaple/libmaple/usb/stm32f1/usb_cdcacm.o
                0x20001908                countTx
 .bss.last_request
                0x2000190c        0x1 build//Users/marcus/Dropbox/Studienarbeit/Sourcecode/StudienarbeitX/Library/libmaple/libmaple/usb/stm32f1/usb_cdcacm.o
                0x2000190c                last_request
 *fill*         0x2000190d        0x3 00
 .bss.recvBufIn
                0x20001910        0x4 build//Users/marcus/Dropbox/Studienarbeit/Sourcecode/StudienarbeitX/Library/libmaple/libmaple/usb/stm32f1/usb_cdcacm.o
                0x20001910                recvBufIn
 .bss.Data_Mul_MaxPacketSize
                0x20001914        0x1 build//Users/marcus/Dropbox/Studienarbeit/Sourcecode/StudienarbeitX/Library/libmaple/libmaple/usb/usb_lib/usb_core.o
                0x20001914                Data_Mul_MaxPacketSize
 *fill*         0x20001915        0x3 00
 .bss.usart1_rb
                0x20001918        0xc build//Users/marcus/Dropbox/Studienarbeit/Sourcecode/StudienarbeitX/Library/libmaple/libmaple/stm32f1/usart.o
 .bss.usart2_rb
                0x20001924        0xc build//Users/marcus/Dropbox/Studienarbeit/Sourcecode/StudienarbeitX/Library/libmaple/libmaple/stm32f1/usart.o
 .bss.usart3_rb
                0x20001930        0xc build//Users/marcus/Dropbox/Studienarbeit/Sourcecode/StudienarbeitX/Library/libmaple/libmaple/stm32f1/usart.o
 .bss.pbreak.1614
                0x2000193c        0x4 build//Users/marcus/Dropbox/Studienarbeit/Sourcecode/StudienarbeitX/Library/libmaple/wirish/syscalls.o
 .bss.Serial1   0x20001940        0xc build//Users/marcus/Dropbox/Studienarbeit/Sourcecode/StudienarbeitX/Library/libmaple/wirish/HardwareSerial.o
                0x20001940                Serial1
 .bss.Serial2   0x2000194c        0xc build//Users/marcus/Dropbox/Studienarbeit/Sourcecode/StudienarbeitX/Library/libmaple/wirish/HardwareSerial.o
                0x2000194c                Serial2
 .bss.Serial3   0x20001958        0xc build//Users/marcus/Dropbox/Studienarbeit/Sourcecode/StudienarbeitX/Library/libmaple/wirish/HardwareSerial.o
                0x20001958                Serial3
 .bss.Timer1    0x20001964        0x4 build//Users/marcus/Dropbox/Studienarbeit/Sourcecode/StudienarbeitX/Library/libmaple/wirish/HardwareTimer.o
                0x20001964                Timer1
 .bss.Timer2    0x20001968        0x4 build//Users/marcus/Dropbox/Studienarbeit/Sourcecode/StudienarbeitX/Library/libmaple/wirish/HardwareTimer.o
                0x20001968                Timer2
 .bss.Timer3    0x2000196c        0x4 build//Users/marcus/Dropbox/Studienarbeit/Sourcecode/StudienarbeitX/Library/libmaple/wirish/HardwareTimer.o
                0x2000196c                Timer3
 .bss.Timer4    0x20001970        0x4 build//Users/marcus/Dropbox/Studienarbeit/Sourcecode/StudienarbeitX/Library/libmaple/wirish/HardwareTimer.o
                0x20001970                Timer4
 .bss._ZL7this_id
                0x20001974        0x1 build//Users/marcus/Dropbox/Studienarbeit/Sourcecode/StudienarbeitX/Library/libmaple/wirish/HardwareTimer.o
 *fill*         0x20001975        0x3 00
 .bss._ZL9this_devp
                0x20001978        0x4 build//Users/marcus/Dropbox/Studienarbeit/Sourcecode/StudienarbeitX/Library/libmaple/wirish/HardwareTimer.o
 .bss.SerialUSB
                0x2000197c        0x4 build//Users/marcus/Dropbox/Studienarbeit/Sourcecode/StudienarbeitX/Library/libmaple/wirish/usb_serial.o
                0x2000197c                SerialUSB
 .bss._ZL6buffer
                0x20001980       0xa0 build//Users/marcus/Dropbox/Studienarbeit/Sourcecode/StudienarbeitX/Library/TinyWebServer/TinyWebServer.o
 .bss.SPIfoo    0x20001a20        0x4 build//Users/marcus/Dropbox/Studienarbeit/Sourcecode/StudienarbeitX/Library/WiFlySerial/SpiUart.o
                0x20001a20                SPIfoo
 .bss.web       0x20001a24       0x30 build//Users/marcus/Dropbox/Studienarbeit/Sourcecode/StudienarbeitX/TWS-HelloWorld.o
                0x20001a24                web
 .bss.WiFly     0x20001a54       0x30 build//Users/marcus/Dropbox/Studienarbeit/Sourcecode/StudienarbeitX/TWS-HelloWorld.o
                0x20001a54                WiFly
 .bss.SpiSerial
                0x20001a84        0x4 build//Users/marcus/Dropbox/Studienarbeit/Sourcecode/StudienarbeitX/TWS-HelloWorld.o
                0x20001a84                SpiSerial
 .bss.spi       0x20001a88        0x4 build//Users/marcus/Dropbox/Studienarbeit/Sourcecode/StudienarbeitX/TWS-HelloWorld.o
                0x20001a88                spi
 .bss.Ethernet  0x20001a8c       0x10 build//Users/marcus/Dropbox/Studienarbeit/Sourcecode/StudienarbeitX/TWS-HelloWorld.o
                0x20001a8c                Ethernet
 .bss.myServer  0x20001a9c       0x14 build//Users/marcus/Dropbox/Studienarbeit/Sourcecode/StudienarbeitX/TWS-HelloWorld.o
                0x20001a9c                myServer
 .bss.__malloc_max_total_mem
                0x20001ab0        0x4 /usr/local/bin/../lib/gcc/arm-none-eabi/4.4.1/../../../../arm-none-eabi/lib/thumb2/libc.a(lib_a-mallocr.o)
                0x20001ab0                __malloc_max_total_mem
 .bss.__malloc_max_sbrked_mem
                0x20001ab4        0x4 /usr/local/bin/../lib/gcc/arm-none-eabi/4.4.1/../../../../arm-none-eabi/lib/thumb2/libc.a(lib_a-mallocr.o)
                0x20001ab4                __malloc_max_sbrked_mem
 .bss.__malloc_top_pad
                0x20001ab8        0x4 /usr/local/bin/../lib/gcc/arm-none-eabi/4.4.1/../../../../arm-none-eabi/lib/thumb2/libc.a(lib_a-mallocr.o)
                0x20001ab8                __malloc_top_pad
 .bss.__malloc_current_mallinfo
                0x20001abc       0x28 /usr/local/bin/../lib/gcc/arm-none-eabi/4.4.1/../../../../arm-none-eabi/lib/thumb2/libc.a(lib_a-mallocr.o)
                0x20001abc                __malloc_current_mallinfo
 *(COMMON)
 COMMON         0x20001ae4        0x4 build//Users/marcus/Dropbox/Studienarbeit/Sourcecode/StudienarbeitX/Library/libmaple/libmaple/systick.o
                0x20001ae4                systick_uptime_millis
 COMMON         0x20001ae8        0x6 build//Users/marcus/Dropbox/Studienarbeit/Sourcecode/StudienarbeitX/Library/libmaple/libmaple/usb/stm32f1/usb.o
                0x20001ae8                SaveRState
                0x20001aea                SaveTState
                0x20001aec                ResumeS
 *fill*         0x20001aee        0x2 00
 COMMON         0x20001af0       0xc0 build//Users/marcus/Dropbox/Studienarbeit/Sourcecode/StudienarbeitX/Library/libmaple/libmaple/usb/stm32f1/usb_cdcacm.o
                0x20001af0                vcomBufferRx
 COMMON         0x20001bb0        0x2 build//Users/marcus/Dropbox/Studienarbeit/Sourcecode/StudienarbeitX/Library/libmaple/libmaple/usb/usb_lib/usb_core.o
                0x20001bb0                StatusInfo
 *fill*         0x20001bb2        0x2 00
 COMMON         0x20001bb4       0x32 build//Users/marcus/Dropbox/Studienarbeit/Sourcecode/StudienarbeitX/Library/libmaple/libmaple/usb/usb_lib/usb_init.o
                0x20001bb4                SaveState
                0x20001bb8                pProperty
                0x20001bbc                EPindex
                0x20001bc0                Device_Info
                0x20001bdc                pUser_Standard_Requests
                0x20001be0                pInformation
                0x20001be4                wInterrupt_Mask
 *fill*         0x20001be6        0x2 00
 COMMON         0x20001be8        0x4 /usr/local/bin/../lib/gcc/arm-none-eabi/4.4.1/../../../../arm-none-eabi/lib/thumb2/libc.a(lib_a-reent.o)
                0x20001be8                errno
                0x20001bf0                . = ALIGN (0x8)
 *fill*         0x20001bec        0x4 00
                0x20001bf0                _ebss = .
                0x20001bf0                _end = _ebss

.stab
 *(.stab)

.stabstr
 *(.stabstr)

.debug
 *(.debug)

.line
 *(.line)

.debug_srcinfo
 *(.debug_srcinfo)

.debug_sfnames
 *(.debug_sfnames)

.comment        0x00000000      0x798
 .comment       0x00000000       0x12 /usr/local/bin/../lib/gcc/arm-none-eabi/4.4.1/thumb2/crtbegin.o
 .comment       0x00000012       0x12 build//Users/marcus/Dropbox/Studienarbeit/Sourcecode/StudienarbeitX/Library/libmaple/libmaple/adc.o
 .comment       0x00000024       0x12 build//Users/marcus/Dropbox/Studienarbeit/Sourcecode/StudienarbeitX/Library/libmaple/libmaple/dac.o
 .comment       0x00000036       0x12 build//Users/marcus/Dropbox/Studienarbeit/Sourcecode/StudienarbeitX/Library/libmaple/libmaple/dma.o
 .comment       0x00000048       0x12 build//Users/marcus/Dropbox/Studienarbeit/Sourcecode/StudienarbeitX/Library/libmaple/libmaple/exti.o
 .comment       0x0000005a       0x12 build//Users/marcus/Dropbox/Studienarbeit/Sourcecode/StudienarbeitX/Library/libmaple/libmaple/flash.o
 .comment       0x0000006c       0x12 build//Users/marcus/Dropbox/Studienarbeit/Sourcecode/StudienarbeitX/Library/libmaple/libmaple/gpio.o
 .comment       0x0000007e       0x12 build//Users/marcus/Dropbox/Studienarbeit/Sourcecode/StudienarbeitX/Library/libmaple/libmaple/iwdg.o
 .comment       0x00000090       0x12 build//Users/marcus/Dropbox/Studienarbeit/Sourcecode/StudienarbeitX/Library/libmaple/libmaple/nvic.o
 .comment       0x000000a2       0x12 build//Users/marcus/Dropbox/Studienarbeit/Sourcecode/StudienarbeitX/Library/libmaple/libmaple/pwr.o
 .comment       0x000000b4       0x12 build//Users/marcus/Dropbox/Studienarbeit/Sourcecode/StudienarbeitX/Library/libmaple/libmaple/rcc.o
 .comment       0x000000c6       0x12 build//Users/marcus/Dropbox/Studienarbeit/Sourcecode/StudienarbeitX/Library/libmaple/libmaple/spi.o
 .comment       0x000000d8       0x12 build//Users/marcus/Dropbox/Studienarbeit/Sourcecode/StudienarbeitX/Library/libmaple/libmaple/systick.o
 .comment       0x000000ea       0x12 build//Users/marcus/Dropbox/Studienarbeit/Sourcecode/StudienarbeitX/Library/libmaple/libmaple/timer.o
 .comment       0x000000fc       0x12 build//Users/marcus/Dropbox/Studienarbeit/Sourcecode/StudienarbeitX/Library/libmaple/libmaple/usart.o
 .comment       0x0000010e       0x12 build//Users/marcus/Dropbox/Studienarbeit/Sourcecode/StudienarbeitX/Library/libmaple/libmaple/usart_private.o
 .comment       0x00000120       0x12 build//Users/marcus/Dropbox/Studienarbeit/Sourcecode/StudienarbeitX/Library/libmaple/libmaple/util.o
 .comment       0x00000132       0x12 build//Users/marcus/Dropbox/Studienarbeit/Sourcecode/StudienarbeitX/Library/libmaple/libmaple/i2c.o
 .comment       0x00000144       0x12 build//Users/marcus/Dropbox/Studienarbeit/Sourcecode/StudienarbeitX/Library/libmaple/libmaple/usb/stm32f1/usb.o
 .comment       0x00000156       0x12 build//Users/marcus/Dropbox/Studienarbeit/Sourcecode/StudienarbeitX/Library/libmaple/libmaple/usb/stm32f1/usb_reg_map.o
 .comment       0x00000168       0x12 build//Users/marcus/Dropbox/Studienarbeit/Sourcecode/StudienarbeitX/Library/libmaple/libmaple/usb/stm32f1/usb_cdcacm.o
 .comment       0x0000017a       0x12 build//Users/marcus/Dropbox/Studienarbeit/Sourcecode/StudienarbeitX/Library/libmaple/libmaple/usb/usb_lib/usb_core.o
 .comment       0x0000018c       0x12 build//Users/marcus/Dropbox/Studienarbeit/Sourcecode/StudienarbeitX/Library/libmaple/libmaple/usb/usb_lib/usb_init.o
 .comment       0x0000019e       0x12 build//Users/marcus/Dropbox/Studienarbeit/Sourcecode/StudienarbeitX/Library/libmaple/libmaple/usb/usb_lib/usb_mem.o
 .comment       0x000001b0       0x12 build//Users/marcus/Dropbox/Studienarbeit/Sourcecode/StudienarbeitX/Library/libmaple/libmaple/usb/usb_lib/usb_regs.o
 .comment       0x000001c2       0x12 build//Users/marcus/Dropbox/Studienarbeit/Sourcecode/StudienarbeitX/Library/libmaple/libmaple/stm32f1/adc.o
 .comment       0x000001d4       0x12 build//Users/marcus/Dropbox/Studienarbeit/Sourcecode/StudienarbeitX/Library/libmaple/libmaple/stm32f1/bkp.o
 .comment       0x000001e6       0x12 build//Users/marcus/Dropbox/Studienarbeit/Sourcecode/StudienarbeitX/Library/libmaple/libmaple/stm32f1/dma.o
 .comment       0x000001f8       0x12 build//Users/marcus/Dropbox/Studienarbeit/Sourcecode/StudienarbeitX/Library/libmaple/libmaple/stm32f1/exti.o
 .comment       0x0000020a       0x12 build//Users/marcus/Dropbox/Studienarbeit/Sourcecode/StudienarbeitX/Library/libmaple/libmaple/stm32f1/fsmc.o
 .comment       0x0000021c       0x12 build//Users/marcus/Dropbox/Studienarbeit/Sourcecode/StudienarbeitX/Library/libmaple/libmaple/stm32f1/gpio.o
 .comment       0x0000022e       0x12 build//Users/marcus/Dropbox/Studienarbeit/Sourcecode/StudienarbeitX/Library/libmaple/libmaple/stm32f1/i2c.o
 .comment       0x00000240       0x12 build//Users/marcus/Dropbox/Studienarbeit/Sourcecode/StudienarbeitX/Library/libmaple/libmaple/stm32f1/rcc.o
 .comment       0x00000252       0x12 build//Users/marcus/Dropbox/Studienarbeit/Sourcecode/StudienarbeitX/Library/libmaple/libmaple/stm32f1/spi.o
 .comment       0x00000264       0x12 build//Users/marcus/Dropbox/Studienarbeit/Sourcecode/StudienarbeitX/Library/libmaple/libmaple/stm32f1/timer.o
 .comment       0x00000276       0x12 build//Users/marcus/Dropbox/Studienarbeit/Sourcecode/StudienarbeitX/Library/libmaple/libmaple/stm32f1/usart.o
 .comment       0x00000288       0x12 build//Users/marcus/Dropbox/Studienarbeit/Sourcecode/StudienarbeitX/Library/libmaple/wirish/start_c.o
 .comment       0x0000029a       0x12 build//Users/marcus/Dropbox/Studienarbeit/Sourcecode/StudienarbeitX/Library/libmaple/wirish/syscalls.o
 .comment       0x000002ac       0x12 build//Users/marcus/Dropbox/Studienarbeit/Sourcecode/StudienarbeitX/Library/libmaple/wirish/stm32f1/util_hooks.o
 .comment       0x000002be       0x12 build//Users/marcus/Dropbox/Studienarbeit/Sourcecode/StudienarbeitX/Library/libmaple/wirish/boards.o
 .comment       0x000002d0       0x12 build//Users/marcus/Dropbox/Studienarbeit/Sourcecode/StudienarbeitX/Library/libmaple/wirish/cxxabi-compat.o
 .comment       0x000002e2       0x12 build//Users/marcus/Dropbox/Studienarbeit/Sourcecode/StudienarbeitX/Library/libmaple/wirish/ext_interrupts.o
 .comment       0x000002f4       0x12 build//Users/marcus/Dropbox/Studienarbeit/Sourcecode/StudienarbeitX/Library/libmaple/wirish/HardwareSerial.o
 .comment       0x00000306       0x12 build//Users/marcus/Dropbox/Studienarbeit/Sourcecode/StudienarbeitX/Library/libmaple/wirish/HardwareTimer.o
 .comment       0x00000318       0x12 build//Users/marcus/Dropbox/Studienarbeit/Sourcecode/StudienarbeitX/Library/libmaple/wirish/Print.o
 .comment       0x0000032a       0x12 build//Users/marcus/Dropbox/Studienarbeit/Sourcecode/StudienarbeitX/Library/libmaple/wirish/pwm.o
 .comment       0x0000033c       0x12 build//Users/marcus/Dropbox/Studienarbeit/Sourcecode/StudienarbeitX/Library/libmaple/wirish/usb_serial.o
 .comment       0x0000034e       0x12 build//Users/marcus/Dropbox/Studienarbeit/Sourcecode/StudienarbeitX/Library/libmaple/wirish/HardwareSPI.o
 .comment       0x00000360       0x12 build//Users/marcus/Dropbox/Studienarbeit/Sourcecode/StudienarbeitX/Library/libmaple/wirish/wirish_analog.o
 .comment       0x00000372       0x12 build//Users/marcus/Dropbox/Studienarbeit/Sourcecode/StudienarbeitX/Library/libmaple/wirish/wirish_digital.o
 .comment       0x00000384       0x12 build//Users/marcus/Dropbox/Studienarbeit/Sourcecode/StudienarbeitX/Library/libmaple/wirish/wirish_math.o
 .comment       0x00000396       0x12 build//Users/marcus/Dropbox/Studienarbeit/Sourcecode/StudienarbeitX/Library/libmaple/wirish/wirish_shift.o
 .comment       0x000003a8       0x12 build//Users/marcus/Dropbox/Studienarbeit/Sourcecode/StudienarbeitX/Library/libmaple/wirish/wirish_time.o
 .comment       0x000003ba       0x12 build//Users/marcus/Dropbox/Studienarbeit/Sourcecode/StudienarbeitX/Library/libmaple/wirish/stm32f1/boards_setup.o
 .comment       0x000003cc       0x12 build//Users/marcus/Dropbox/Studienarbeit/Sourcecode/StudienarbeitX/Library/libmaple/wirish/stm32f1/wirish_digital.o
 .comment       0x000003de       0x12 build//Users/marcus/Dropbox/Studienarbeit/Sourcecode/StudienarbeitX/Library/libmaple/wirish/stm32f1/wirish_debug.o
 .comment       0x000003f0       0x12 build//Users/marcus/Dropbox/Studienarbeit/Sourcecode/StudienarbeitX/Library/libmaple/wirish/boards/maple/board.o
 .comment       0x00000402       0x12 build//Users/marcus/Dropbox/Studienarbeit/Sourcecode/StudienarbeitX/Library/libmaple/libraries/Servo/Servo.o
 .comment       0x00000414       0x12 build//Users/marcus/Dropbox/Studienarbeit/Sourcecode/StudienarbeitX/Library/libmaple/libraries/LiquidCrystal/LiquidCrystal.o
 .comment       0x00000426       0x12 build//Users/marcus/Dropbox/Studienarbeit/Sourcecode/StudienarbeitX/Library/libmaple/libraries/Wire/WireBase.o
 .comment       0x00000438       0x12 build//Users/marcus/Dropbox/Studienarbeit/Sourcecode/StudienarbeitX/Library/libmaple/libraries/Wire/HardWire.o
 .comment       0x0000044a       0x12 build//Users/marcus/Dropbox/Studienarbeit/Sourcecode/StudienarbeitX/Library/libmaple/libraries/Wire/Wire.o
 .comment       0x0000045c       0x12 build//Users/marcus/Dropbox/Studienarbeit/Sourcecode/StudienarbeitX/Library/TinyWebServer/TinyWebServer.o
 .comment       0x0000046e       0x12 build//Users/marcus/Dropbox/Studienarbeit/Sourcecode/StudienarbeitX/Library/WiFlySerial/SpiUart.o
 .comment       0x00000480       0x12 build//Users/marcus/Dropbox/Studienarbeit/Sourcecode/StudienarbeitX/Library/WiFlySerial/WiFlySerial.o
 .comment       0x00000492       0x12 build//Users/marcus/Dropbox/Studienarbeit/Sourcecode/StudienarbeitX/Library/WiFlySerial/WFSEthernet.o
 .comment       0x000004a4       0x12 build//Users/marcus/Dropbox/Studienarbeit/Sourcecode/StudienarbeitX/Library/WiFlySerial/WFSEthernetServer.o
 .comment       0x000004b6       0x12 build//Users/marcus/Dropbox/Studienarbeit/Sourcecode/StudienarbeitX/Library/WiFlySerial/WFSEthernetClient.o
 .comment       0x000004c8       0x12 build//Users/marcus/Dropbox/Studienarbeit/Sourcecode/StudienarbeitX/Library/WiFlySerial/WFSIPAddress.o
 .comment       0x000004da       0x12 build//Users/marcus/Dropbox/Studienarbeit/Sourcecode/StudienarbeitX/TWS-HelloWorld.o
 .comment       0x000004ec       0x12 build/main.o
 .comment       0x000004fe       0x12 /usr/local/bin/../lib/gcc/arm-none-eabi/4.4.1/thumb2/libgcc.a(_fixdfdi.o)
 .comment       0x00000510       0x12 /usr/local/bin/../lib/gcc/arm-none-eabi/4.4.1/thumb2/libgcc.a(_fixunsdfdi.o)
 .comment       0x00000522       0x12 /usr/local/bin/../lib/gcc/arm-none-eabi/4.4.1/thumb2/libgcc.a(bpabi.o)
 .comment       0x00000534       0x12 /usr/local/bin/../lib/gcc/arm-none-eabi/4.4.1/thumb2/libgcc.a(_divdi3.o)
 .comment       0x00000546       0x12 /usr/local/bin/../lib/gcc/arm-none-eabi/4.4.1/thumb2/libgcc.a(_udivdi3.o)
 .comment       0x00000558       0x12 /usr/local/bin/../lib/gcc/arm-none-eabi/4.4.1/../../../../arm-none-eabi/lib/thumb2/libc.a(lib_a-atol.o)
 .comment       0x0000056a       0x12 /usr/local/bin/../lib/gcc/arm-none-eabi/4.4.1/../../../../arm-none-eabi/lib/thumb2/libc.a(lib_a-errno.o)
 .comment       0x0000057c       0x12 /usr/local/bin/../lib/gcc/arm-none-eabi/4.4.1/../../../../arm-none-eabi/lib/thumb2/libc.a(lib_a-impure.o)
 .comment       0x0000058e       0x12 /usr/local/bin/../lib/gcc/arm-none-eabi/4.4.1/../../../../arm-none-eabi/lib/thumb2/libc.a(lib_a-init.o)
 .comment       0x000005a0       0x12 /usr/local/bin/../lib/gcc/arm-none-eabi/4.4.1/../../../../arm-none-eabi/lib/thumb2/libc.a(lib_a-isalnum.o)
 .comment       0x000005b2       0x12 /usr/local/bin/../lib/gcc/arm-none-eabi/4.4.1/../../../../arm-none-eabi/lib/thumb2/libc.a(lib_a-isspace.o)
 .comment       0x000005c4       0x12 /usr/local/bin/../lib/gcc/arm-none-eabi/4.4.1/../../../../arm-none-eabi/lib/thumb2/libc.a(lib_a-malloc.o)
 .comment       0x000005d6       0x12 /usr/local/bin/../lib/gcc/arm-none-eabi/4.4.1/../../../../arm-none-eabi/lib/thumb2/libc.a(lib_a-mallocr.o)
 .comment       0x000005e8       0x12 /usr/local/bin/../lib/gcc/arm-none-eabi/4.4.1/../../../../arm-none-eabi/lib/thumb2/libc.a(lib_a-memcmp.o)
 .comment       0x000005fa       0x12 /usr/local/bin/../lib/gcc/arm-none-eabi/4.4.1/../../../../arm-none-eabi/lib/thumb2/libc.a(lib_a-memcpy.o)
 .comment       0x0000060c       0x12 /usr/local/bin/../lib/gcc/arm-none-eabi/4.4.1/../../../../arm-none-eabi/lib/thumb2/libc.a(lib_a-memset.o)
 .comment       0x0000061e       0x12 /usr/local/bin/../lib/gcc/arm-none-eabi/4.4.1/../../../../arm-none-eabi/lib/thumb2/libc.a(lib_a-mlock.o)
 .comment       0x00000630       0x12 /usr/local/bin/../lib/gcc/arm-none-eabi/4.4.1/../../../../arm-none-eabi/lib/thumb2/libc.a(lib_a-rand.o)
 .comment       0x00000642       0x12 /usr/local/bin/../lib/gcc/arm-none-eabi/4.4.1/../../../../arm-none-eabi/lib/thumb2/libc.a(lib_a-sbrkr.o)
 .comment       0x00000654       0x12 /usr/local/bin/../lib/gcc/arm-none-eabi/4.4.1/../../../../arm-none-eabi/lib/thumb2/libc.a(lib_a-strcat.o)
 .comment       0x00000666       0x12 /usr/local/bin/../lib/gcc/arm-none-eabi/4.4.1/../../../../arm-none-eabi/lib/thumb2/libc.a(lib_a-strchr.o)
 .comment       0x00000678       0x12 /usr/local/bin/../lib/gcc/arm-none-eabi/4.4.1/../../../../arm-none-eabi/lib/thumb2/libc.a(lib_a-strcmp.o)
 .comment       0x0000068a       0x12 /usr/local/bin/../lib/gcc/arm-none-eabi/4.4.1/../../../../arm-none-eabi/lib/thumb2/libc.a(lib_a-strcpy.o)
 .comment       0x0000069c       0x12 /usr/local/bin/../lib/gcc/arm-none-eabi/4.4.1/../../../../arm-none-eabi/lib/thumb2/libc.a(lib_a-strlen.o)
 .comment       0x000006ae       0x12 /usr/local/bin/../lib/gcc/arm-none-eabi/4.4.1/../../../../arm-none-eabi/lib/thumb2/libc.a(lib_a-strncat.o)
 .comment       0x000006c0       0x12 /usr/local/bin/../lib/gcc/arm-none-eabi/4.4.1/../../../../arm-none-eabi/lib/thumb2/libc.a(lib_a-strncmp.o)
 .comment       0x000006d2       0x12 /usr/local/bin/../lib/gcc/arm-none-eabi/4.4.1/../../../../arm-none-eabi/lib/thumb2/libc.a(lib_a-strncpy.o)
 .comment       0x000006e4       0x12 /usr/local/bin/../lib/gcc/arm-none-eabi/4.4.1/../../../../arm-none-eabi/lib/thumb2/libc.a(lib_a-strrchr.o)
 .comment       0x000006f6       0x12 /usr/local/bin/../lib/gcc/arm-none-eabi/4.4.1/../../../../arm-none-eabi/lib/thumb2/libc.a(lib_a-strstr.o)
 .comment       0x00000708       0x12 /usr/local/bin/../lib/gcc/arm-none-eabi/4.4.1/../../../../arm-none-eabi/lib/thumb2/libc.a(lib_a-strtol.o)
 .comment       0x0000071a       0x12 /usr/local/bin/../lib/gcc/arm-none-eabi/4.4.1/../../../../arm-none-eabi/lib/thumb2/libc.a(lib_a-strtoul.o)
 .comment       0x0000072c       0x12 /usr/local/bin/../lib/gcc/arm-none-eabi/4.4.1/../../../../arm-none-eabi/lib/thumb2/libc.a(lib_a-strupr.o)
 .comment       0x0000073e       0x12 /usr/local/bin/../lib/gcc/arm-none-eabi/4.4.1/../../../../arm-none-eabi/lib/thumb2/libc.a(lib_a-toupper.o)
 .comment       0x00000750       0x12 /usr/local/bin/../lib/gcc/arm-none-eabi/4.4.1/../../../../arm-none-eabi/lib/thumb2/libc.a(lib_a-ctype_.o)
 .comment       0x00000762       0x12 /usr/local/bin/../lib/gcc/arm-none-eabi/4.4.1/../../../../arm-none-eabi/lib/thumb2/libc.a(lib_a-freer.o)
 .comment       0x00000774       0x12 /usr/local/bin/../lib/gcc/arm-none-eabi/4.4.1/../../../../arm-none-eabi/lib/thumb2/libc.a(lib_a-reent.o)
 .comment       0x00000786       0x12 /usr/local/bin/../lib/gcc/arm-none-eabi/4.4.1/thumb2/crtend.o

.debug_aranges  0x00000000     0x1ee0
 *(.debug_aranges)
 .debug_aranges
                0x00000000       0x28 /usr/local/bin/../lib/gcc/arm-none-eabi/4.4.1/thumb2/crti.o
 .debug_aranges
                0x00000028       0x38 build//Users/marcus/Dropbox/Studienarbeit/Sourcecode/StudienarbeitX/Library/libmaple/libmaple/adc.o
 .debug_aranges
                0x00000060       0x38 build//Users/marcus/Dropbox/Studienarbeit/Sourcecode/StudienarbeitX/Library/libmaple/libmaple/dac.o
 .debug_aranges
                0x00000098       0x28 build//Users/marcus/Dropbox/Studienarbeit/Sourcecode/StudienarbeitX/Library/libmaple/libmaple/dma.o
 .debug_aranges
                0x000000c0       0x70 build//Users/marcus/Dropbox/Studienarbeit/Sourcecode/StudienarbeitX/Library/libmaple/libmaple/exti.o
 .debug_aranges
                0x00000130       0x20 build//Users/marcus/Dropbox/Studienarbeit/Sourcecode/StudienarbeitX/Library/libmaple/libmaple/flash.o
 .debug_aranges
                0x00000150       0x20 build//Users/marcus/Dropbox/Studienarbeit/Sourcecode/StudienarbeitX/Library/libmaple/libmaple/gpio.o
 .debug_aranges
                0x00000170       0x28 build//Users/marcus/Dropbox/Studienarbeit/Sourcecode/StudienarbeitX/Library/libmaple/libmaple/iwdg.o
 .debug_aranges
                0x00000198       0x38 build//Users/marcus/Dropbox/Studienarbeit/Sourcecode/StudienarbeitX/Library/libmaple/libmaple/nvic.o
 .debug_aranges
                0x000001d0       0x20 build//Users/marcus/Dropbox/Studienarbeit/Sourcecode/StudienarbeitX/Library/libmaple/libmaple/pwr.o
 .debug_aranges
                0x000001f0       0x58 build//Users/marcus/Dropbox/Studienarbeit/Sourcecode/StudienarbeitX/Library/libmaple/libmaple/rcc.o
 .debug_aranges
                0x00000248       0x78 build//Users/marcus/Dropbox/Studienarbeit/Sourcecode/StudienarbeitX/Library/libmaple/libmaple/spi.o
 .debug_aranges
                0x000002c0       0x40 build//Users/marcus/Dropbox/Studienarbeit/Sourcecode/StudienarbeitX/Library/libmaple/libmaple/systick.o
 .debug_aranges
                0x00000300       0x78 build//Users/marcus/Dropbox/Studienarbeit/Sourcecode/StudienarbeitX/Library/libmaple/libmaple/timer.o
 .debug_aranges
                0x00000378       0x48 build//Users/marcus/Dropbox/Studienarbeit/Sourcecode/StudienarbeitX/Library/libmaple/libmaple/usart.o
 .debug_aranges
                0x000003c0       0x20 build//Users/marcus/Dropbox/Studienarbeit/Sourcecode/StudienarbeitX/Library/libmaple/libmaple/usart_private.o
 .debug_aranges
                0x000003e0       0x58 build//Users/marcus/Dropbox/Studienarbeit/Sourcecode/StudienarbeitX/Library/libmaple/libmaple/util.o
 .debug_aranges
                0x00000438       0xa8 build//Users/marcus/Dropbox/Studienarbeit/Sourcecode/StudienarbeitX/Library/libmaple/libmaple/i2c.o
 .debug_aranges
                0x000004e0       0x58 build//Users/marcus/Dropbox/Studienarbeit/Sourcecode/StudienarbeitX/Library/libmaple/libmaple/usb/stm32f1/usb.o
 .debug_aranges
                0x00000538       0x38 build//Users/marcus/Dropbox/Studienarbeit/Sourcecode/StudienarbeitX/Library/libmaple/libmaple/usb/stm32f1/usb_reg_map.o
 .debug_aranges
                0x00000570      0x108 build//Users/marcus/Dropbox/Studienarbeit/Sourcecode/StudienarbeitX/Library/libmaple/libmaple/usb/stm32f1/usb_cdcacm.o
 .debug_aranges
                0x00000678       0x98 build//Users/marcus/Dropbox/Studienarbeit/Sourcecode/StudienarbeitX/Library/libmaple/libmaple/usb/usb_lib/usb_core.o
 .debug_aranges
                0x00000710       0x20 build//Users/marcus/Dropbox/Studienarbeit/Sourcecode/StudienarbeitX/Library/libmaple/libmaple/usb/usb_lib/usb_init.o
 .debug_aranges
                0x00000730       0x28 build//Users/marcus/Dropbox/Studienarbeit/Sourcecode/StudienarbeitX/Library/libmaple/libmaple/usb/usb_lib/usb_mem.o
 .debug_aranges
                0x00000758      0x1f0 build//Users/marcus/Dropbox/Studienarbeit/Sourcecode/StudienarbeitX/Library/libmaple/libmaple/usb/usb_lib/usb_regs.o
 .debug_aranges
                0x00000948       0x48 build//Users/marcus/Dropbox/Studienarbeit/Sourcecode/StudienarbeitX/Library/libmaple/libmaple/stm32f1/adc.o
 .debug_aranges
                0x00000990       0x50 build//Users/marcus/Dropbox/Studienarbeit/Sourcecode/StudienarbeitX/Library/libmaple/libmaple/stm32f1/bkp.o
 .debug_aranges
                0x000009e0       0xe0 build//Users/marcus/Dropbox/Studienarbeit/Sourcecode/StudienarbeitX/Library/libmaple/libmaple/stm32f1/dma.o
 .debug_aranges
                0x00000ac0       0x20 build//Users/marcus/Dropbox/Studienarbeit/Sourcecode/StudienarbeitX/Library/libmaple/libmaple/stm32f1/exti.o
 .debug_aranges
                0x00000ae0       0x38 build//Users/marcus/Dropbox/Studienarbeit/Sourcecode/StudienarbeitX/Library/libmaple/libmaple/stm32f1/gpio.o
 .debug_aranges
                0x00000b18       0x68 build//Users/marcus/Dropbox/Studienarbeit/Sourcecode/StudienarbeitX/Library/libmaple/libmaple/stm32f1/i2c.o
 .debug_aranges
                0x00000b80       0x48 build//Users/marcus/Dropbox/Studienarbeit/Sourcecode/StudienarbeitX/Library/libmaple/libmaple/stm32f1/rcc.o
 .debug_aranges
                0x00000bc8       0x28 build//Users/marcus/Dropbox/Studienarbeit/Sourcecode/StudienarbeitX/Library/libmaple/libmaple/stm32f1/spi.o
 .debug_aranges
                0x00000bf0       0x50 build//Users/marcus/Dropbox/Studienarbeit/Sourcecode/StudienarbeitX/Library/libmaple/libmaple/stm32f1/timer.o
 .debug_aranges
                0x00000c40       0x50 build//Users/marcus/Dropbox/Studienarbeit/Sourcecode/StudienarbeitX/Library/libmaple/libmaple/stm32f1/usart.o
 .debug_aranges
                0x00000c90       0x20 build//Users/marcus/Dropbox/Studienarbeit/Sourcecode/StudienarbeitX/Library/libmaple/wirish/start_c.o
 .debug_aranges
                0x00000cb0       0x80 build//Users/marcus/Dropbox/Studienarbeit/Sourcecode/StudienarbeitX/Library/libmaple/wirish/syscalls.o
 .debug_aranges
                0x00000d30       0x38 build//Users/marcus/Dropbox/Studienarbeit/Sourcecode/StudienarbeitX/Library/libmaple/wirish/stm32f1/util_hooks.o
 .debug_aranges
                0x00000d68       0x48 build//Users/marcus/Dropbox/Studienarbeit/Sourcecode/StudienarbeitX/Library/libmaple/wirish/boards.o
 .debug_aranges
                0x00000db0       0x20 build//Users/marcus/Dropbox/Studienarbeit/Sourcecode/StudienarbeitX/Library/libmaple/wirish/cxxabi-compat.o
 .debug_aranges
                0x00000dd0       0x28 build//Users/marcus/Dropbox/Studienarbeit/Sourcecode/StudienarbeitX/Library/libmaple/wirish/ext_interrupts.o
 .debug_aranges
                0x00000df8       0x68 build//Users/marcus/Dropbox/Studienarbeit/Sourcecode/StudienarbeitX/Library/libmaple/wirish/HardwareSerial.o
 .debug_aranges
                0x00000e60       0xc8 build//Users/marcus/Dropbox/Studienarbeit/Sourcecode/StudienarbeitX/Library/libmaple/wirish/HardwareTimer.o
 .debug_aranges
                0x00000f28       0xe0 build//Users/marcus/Dropbox/Studienarbeit/Sourcecode/StudienarbeitX/Library/libmaple/wirish/Print.o
 .debug_aranges
                0x00001008       0x20 build//Users/marcus/Dropbox/Studienarbeit/Sourcecode/StudienarbeitX/Library/libmaple/wirish/pwm.o
 .debug_aranges
                0x00001028       0x98 build//Users/marcus/Dropbox/Studienarbeit/Sourcecode/StudienarbeitX/Library/libmaple/wirish/usb_serial.o
 .debug_aranges
                0x000010c0       0xe0 build//Users/marcus/Dropbox/Studienarbeit/Sourcecode/StudienarbeitX/Library/libmaple/wirish/HardwareSPI.o
 .debug_aranges
                0x000011a0       0x20 build//Users/marcus/Dropbox/Studienarbeit/Sourcecode/StudienarbeitX/Library/libmaple/wirish/wirish_analog.o
 .debug_aranges
                0x000011c0       0x40 build//Users/marcus/Dropbox/Studienarbeit/Sourcecode/StudienarbeitX/Library/libmaple/wirish/wirish_digital.o
 .debug_aranges
                0x00001200       0x30 build//Users/marcus/Dropbox/Studienarbeit/Sourcecode/StudienarbeitX/Library/libmaple/wirish/wirish_math.o
 .debug_aranges
                0x00001230       0x20 build//Users/marcus/Dropbox/Studienarbeit/Sourcecode/StudienarbeitX/Library/libmaple/wirish/wirish_shift.o
 .debug_aranges
                0x00001250       0x28 build//Users/marcus/Dropbox/Studienarbeit/Sourcecode/StudienarbeitX/Library/libmaple/wirish/wirish_time.o
 .debug_aranges
                0x00001278       0x40 build//Users/marcus/Dropbox/Studienarbeit/Sourcecode/StudienarbeitX/Library/libmaple/wirish/stm32f1/boards_setup.o
 .debug_aranges
                0x000012b8       0x20 build//Users/marcus/Dropbox/Studienarbeit/Sourcecode/StudienarbeitX/Library/libmaple/wirish/stm32f1/wirish_digital.o
 .debug_aranges
                0x000012d8       0x30 build//Users/marcus/Dropbox/Studienarbeit/Sourcecode/StudienarbeitX/Library/libmaple/wirish/stm32f1/wirish_debug.o
 .debug_aranges
                0x00001308       0x20 build//Users/marcus/Dropbox/Studienarbeit/Sourcecode/StudienarbeitX/Library/libmaple/wirish/boards/maple/board.o
 .debug_aranges
                0x00001328       0x78 build//Users/marcus/Dropbox/Studienarbeit/Sourcecode/StudienarbeitX/Library/libmaple/libraries/Servo/Servo.o
 .debug_aranges
                0x000013a0      0x120 build//Users/marcus/Dropbox/Studienarbeit/Sourcecode/StudienarbeitX/Library/libmaple/libraries/LiquidCrystal/LiquidCrystal.o
 .debug_aranges
                0x000014c0       0x80 build//Users/marcus/Dropbox/Studienarbeit/Sourcecode/StudienarbeitX/Library/libmaple/libraries/Wire/WireBase.o
 .debug_aranges
                0x00001540       0x58 build//Users/marcus/Dropbox/Studienarbeit/Sourcecode/StudienarbeitX/Library/libmaple/libraries/Wire/HardWire.o
 .debug_aranges
                0x00001598       0xa0 build//Users/marcus/Dropbox/Studienarbeit/Sourcecode/StudienarbeitX/Library/libmaple/libraries/Wire/Wire.o
 .debug_aranges
                0x00001638      0x120 build//Users/marcus/Dropbox/Studienarbeit/Sourcecode/StudienarbeitX/Library/TinyWebServer/TinyWebServer.o
 .debug_aranges
                0x00001758       0xa0 build//Users/marcus/Dropbox/Studienarbeit/Sourcecode/StudienarbeitX/Library/WiFlySerial/SpiUart.o
 .debug_aranges
                0x000017f8      0x268 build//Users/marcus/Dropbox/Studienarbeit/Sourcecode/StudienarbeitX/Library/WiFlySerial/WiFlySerial.o
 .debug_aranges
                0x00001a60       0xc0 build//Users/marcus/Dropbox/Studienarbeit/Sourcecode/StudienarbeitX/Library/WiFlySerial/WFSEthernet.o
 .debug_aranges
                0x00001b20       0x50 build//Users/marcus/Dropbox/Studienarbeit/Sourcecode/StudienarbeitX/Library/WiFlySerial/WFSEthernetServer.o
 .debug_aranges
                0x00001b70       0xa8 build//Users/marcus/Dropbox/Studienarbeit/Sourcecode/StudienarbeitX/Library/WiFlySerial/WFSEthernetClient.o
 .debug_aranges
                0x00001c18       0x70 build//Users/marcus/Dropbox/Studienarbeit/Sourcecode/StudienarbeitX/Library/WiFlySerial/WFSIPAddress.o
 .debug_aranges
                0x00001c88       0x50 build//Users/marcus/Dropbox/Studienarbeit/Sourcecode/StudienarbeitX/TWS-HelloWorld.o
 .debug_aranges
                0x00001cd8       0x20 /usr/local/bin/../lib/gcc/arm-none-eabi/4.4.1/thumb2/libgcc.a(_arm_addsubdf3.o)
 .debug_aranges
                0x00001cf8       0x20 /usr/local/bin/../lib/gcc/arm-none-eabi/4.4.1/thumb2/libgcc.a(_arm_muldivdf3.o)
 .debug_aranges
                0x00001d18       0x20 /usr/local/bin/../lib/gcc/arm-none-eabi/4.4.1/thumb2/libgcc.a(_arm_cmpdf2.o)
 .debug_aranges
                0x00001d38       0x20 /usr/local/bin/../lib/gcc/arm-none-eabi/4.4.1/thumb2/libgcc.a(_arm_fixdfsi.o)
 .debug_aranges
                0x00001d58       0x20 /usr/local/bin/../lib/gcc/arm-none-eabi/4.4.1/thumb2/libgcc.a(_arm_muldivsf3.o)
 .debug_aranges
                0x00001d78       0x20 /usr/local/bin/../lib/gcc/arm-none-eabi/4.4.1/thumb2/libgcc.a(_arm_fixsfsi.o)
 .debug_aranges
                0x00001d98       0x20 /usr/local/bin/../lib/gcc/arm-none-eabi/4.4.1/thumb2/libgcc.a(_aeabi_uldivmod.o)
 .debug_aranges
                0x00001db8       0x20 /usr/local/bin/../lib/gcc/arm-none-eabi/4.4.1/thumb2/libgcc.a(_fixdfdi.o)
 .debug_aranges
                0x00001dd8       0x20 /usr/local/bin/../lib/gcc/arm-none-eabi/4.4.1/thumb2/libgcc.a(_fixunsdfdi.o)
 .debug_aranges
                0x00001df8       0x20 /usr/local/bin/../lib/gcc/arm-none-eabi/4.4.1/thumb2/libgcc.a(bpabi.o)
 .debug_aranges
                0x00001e18       0x20 /usr/local/bin/../lib/gcc/arm-none-eabi/4.4.1/thumb2/libgcc.a(_dvmd_tls.o)
 .debug_aranges
                0x00001e38       0x20 /usr/local/bin/../lib/gcc/arm-none-eabi/4.4.1/thumb2/libgcc.a(_arm_fixunsdfsi.o)
 .debug_aranges
                0x00001e58       0x20 /usr/local/bin/../lib/gcc/arm-none-eabi/4.4.1/thumb2/libgcc.a(_divdi3.o)
 .debug_aranges
                0x00001e78       0x20 /usr/local/bin/../lib/gcc/arm-none-eabi/4.4.1/thumb2/libgcc.a(_udivdi3.o)
 .debug_aranges
                0x00001e98       0x20 /usr/local/bin/../lib/gcc/arm-none-eabi/4.4.1/thumb2/libgcc.a(_udivsi3.o)
 .debug_aranges
                0x00001eb8       0x28 /usr/local/bin/../lib/gcc/arm-none-eabi/4.4.1/thumb2/crtn.o

.debug_pubnames
                0x00000000     0x4392
 *(.debug_pubnames)
 .debug_pubnames
                0x00000000       0x57 build//Users/marcus/Dropbox/Studienarbeit/Sourcecode/StudienarbeitX/Library/libmaple/libmaple/adc.o
 .debug_pubnames
                0x00000057       0x64 build//Users/marcus/Dropbox/Studienarbeit/Sourcecode/StudienarbeitX/Library/libmaple/libmaple/dac.o
 .debug_pubnames
                0x000000bb       0x32 build//Users/marcus/Dropbox/Studienarbeit/Sourcecode/StudienarbeitX/Library/libmaple/libmaple/dma.o
 .debug_pubnames
                0x000000ed       0xcf build//Users/marcus/Dropbox/Studienarbeit/Sourcecode/StudienarbeitX/Library/libmaple/libmaple/exti.o
 .debug_pubnames
                0x000001bc       0x28 build//Users/marcus/Dropbox/Studienarbeit/Sourcecode/StudienarbeitX/Library/libmaple/libmaple/flash.o
 .debug_pubnames
                0x000001e4       0x20 build//Users/marcus/Dropbox/Studienarbeit/Sourcecode/StudienarbeitX/Library/libmaple/libmaple/gpio.o
 .debug_pubnames
                0x00000204       0x2e build//Users/marcus/Dropbox/Studienarbeit/Sourcecode/StudienarbeitX/Library/libmaple/libmaple/iwdg.o
 .debug_pubnames
                0x00000232       0x67 build//Users/marcus/Dropbox/Studienarbeit/Sourcecode/StudienarbeitX/Library/libmaple/libmaple/nvic.o
 .debug_pubnames
                0x00000299       0x1f build//Users/marcus/Dropbox/Studienarbeit/Sourcecode/StudienarbeitX/Library/libmaple/libmaple/pwr.o
 .debug_pubnames
                0x000002b8       0x88 build//Users/marcus/Dropbox/Studienarbeit/Sourcecode/StudienarbeitX/Library/libmaple/libmaple/rcc.o
 .debug_pubnames
                0x00000340       0xe4 build//Users/marcus/Dropbox/Studienarbeit/Sourcecode/StudienarbeitX/Library/libmaple/libmaple/spi.o
 .debug_pubnames
                0x00000424       0x92 build//Users/marcus/Dropbox/Studienarbeit/Sourcecode/StudienarbeitX/Library/libmaple/libmaple/systick.o
 .debug_pubnames
                0x000004b6       0xd3 build//Users/marcus/Dropbox/Studienarbeit/Sourcecode/StudienarbeitX/Library/libmaple/libmaple/timer.o
 .debug_pubnames
                0x00000589       0x70 build//Users/marcus/Dropbox/Studienarbeit/Sourcecode/StudienarbeitX/Library/libmaple/libmaple/usart.o
 .debug_pubnames
                0x000005f9       0x28 build//Users/marcus/Dropbox/Studienarbeit/Sourcecode/StudienarbeitX/Library/libmaple/libmaple/usart_private.o
 .debug_pubnames
                0x00000621       0x4e build//Users/marcus/Dropbox/Studienarbeit/Sourcecode/StudienarbeitX/Library/libmaple/libmaple/util.o
 .debug_pubnames
                0x0000066f       0x8b build//Users/marcus/Dropbox/Studienarbeit/Sourcecode/StudienarbeitX/Library/libmaple/libmaple/i2c.o
 .debug_pubnames
                0x000006fa       0x74 build//Users/marcus/Dropbox/Studienarbeit/Sourcecode/StudienarbeitX/Library/libmaple/libmaple/usb/stm32f1/usb.o
 .debug_pubnames
                0x0000076e       0x54 build//Users/marcus/Dropbox/Studienarbeit/Sourcecode/StudienarbeitX/Library/libmaple/libmaple/usb/stm32f1/usb_reg_map.o
 .debug_pubnames
                0x000007c2      0x293 build//Users/marcus/Dropbox/Studienarbeit/Sourcecode/StudienarbeitX/Library/libmaple/libmaple/usb/stm32f1/usb_cdcacm.o
 .debug_pubnames
                0x00000a55      0x1a5 build//Users/marcus/Dropbox/Studienarbeit/Sourcecode/StudienarbeitX/Library/libmaple/libmaple/usb/usb_lib/usb_core.o
 .debug_pubnames
                0x00000bfa       0x98 build//Users/marcus/Dropbox/Studienarbeit/Sourcecode/StudienarbeitX/Library/libmaple/libmaple/usb/usb_lib/usb_init.o
 .debug_pubnames
                0x00000c92       0x42 build//Users/marcus/Dropbox/Studienarbeit/Sourcecode/StudienarbeitX/Library/libmaple/libmaple/usb/usb_lib/usb_mem.o
 .debug_pubnames
                0x00000cd4      0x419 build//Users/marcus/Dropbox/Studienarbeit/Sourcecode/StudienarbeitX/Library/libmaple/libmaple/usb/usb_lib/usb_regs.o
 .debug_pubnames
                0x000010ed       0x8e build//Users/marcus/Dropbox/Studienarbeit/Sourcecode/StudienarbeitX/Library/libmaple/libmaple/stm32f1/adc.o
 .debug_pubnames
                0x0000117b       0x77 build//Users/marcus/Dropbox/Studienarbeit/Sourcecode/StudienarbeitX/Library/libmaple/libmaple/stm32f1/bkp.o
 .debug_pubnames
                0x000011f2      0x1ab build//Users/marcus/Dropbox/Studienarbeit/Sourcecode/StudienarbeitX/Library/libmaple/libmaple/stm32f1/dma.o
 .debug_pubnames
                0x0000139d       0x22 build//Users/marcus/Dropbox/Studienarbeit/Sourcecode/StudienarbeitX/Library/libmaple/libmaple/stm32f1/exti.o
 .debug_pubnames
                0x000013bf       0xa3 build//Users/marcus/Dropbox/Studienarbeit/Sourcecode/StudienarbeitX/Library/libmaple/libmaple/stm32f1/gpio.o
 .debug_pubnames
                0x00001462       0xb8 build//Users/marcus/Dropbox/Studienarbeit/Sourcecode/StudienarbeitX/Library/libmaple/libmaple/stm32f1/i2c.o
 .debug_pubnames
                0x0000151a       0x86 build//Users/marcus/Dropbox/Studienarbeit/Sourcecode/StudienarbeitX/Library/libmaple/libmaple/stm32f1/rcc.o
 .debug_pubnames
                0x000015a0       0x49 build//Users/marcus/Dropbox/Studienarbeit/Sourcecode/StudienarbeitX/Library/libmaple/libmaple/stm32f1/spi.o
 .debug_pubnames
                0x000015e9       0x8d build//Users/marcus/Dropbox/Studienarbeit/Sourcecode/StudienarbeitX/Library/libmaple/libmaple/stm32f1/timer.o
 .debug_pubnames
                0x00001676       0xad build//Users/marcus/Dropbox/Studienarbeit/Sourcecode/StudienarbeitX/Library/libmaple/libmaple/stm32f1/usart.o
 .debug_pubnames
                0x00001723       0x1e build//Users/marcus/Dropbox/Studienarbeit/Sourcecode/StudienarbeitX/Library/libmaple/wirish/start_c.o
 .debug_pubnames
                0x00001741       0x9b build//Users/marcus/Dropbox/Studienarbeit/Sourcecode/StudienarbeitX/Library/libmaple/wirish/syscalls.o
 .debug_pubnames
                0x000017dc       0x3d build//Users/marcus/Dropbox/Studienarbeit/Sourcecode/StudienarbeitX/Library/libmaple/wirish/stm32f1/util_hooks.o
 .debug_pubnames
                0x00001819       0x3a build//Users/marcus/Dropbox/Studienarbeit/Sourcecode/StudienarbeitX/Library/libmaple/wirish/boards.o
 .debug_pubnames
                0x00001853       0x29 build//Users/marcus/Dropbox/Studienarbeit/Sourcecode/StudienarbeitX/Library/libmaple/wirish/cxxabi-compat.o
 .debug_pubnames
                0x0000187c       0x3a build//Users/marcus/Dropbox/Studienarbeit/Sourcecode/StudienarbeitX/Library/libmaple/wirish/ext_interrupts.o
 .debug_pubnames
                0x000018b6      0x12a build//Users/marcus/Dropbox/Studienarbeit/Sourcecode/StudienarbeitX/Library/libmaple/wirish/HardwareSerial.o
 .debug_pubnames
                0x000019e0      0x248 build//Users/marcus/Dropbox/Studienarbeit/Sourcecode/StudienarbeitX/Library/libmaple/wirish/HardwareTimer.o
 .debug_pubnames
                0x00001c28      0x1dc build//Users/marcus/Dropbox/Studienarbeit/Sourcecode/StudienarbeitX/Library/libmaple/wirish/Print.o
 .debug_pubnames
                0x00001e04       0x1f build//Users/marcus/Dropbox/Studienarbeit/Sourcecode/StudienarbeitX/Library/libmaple/wirish/pwm.o
 .debug_pubnames
                0x00001e23      0x169 build//Users/marcus/Dropbox/Studienarbeit/Sourcecode/StudienarbeitX/Library/libmaple/wirish/usb_serial.o
 .debug_pubnames
                0x00001f8c      0x1fc build//Users/marcus/Dropbox/Studienarbeit/Sourcecode/StudienarbeitX/Library/libmaple/wirish/HardwareSPI.o
 .debug_pubnames
                0x00002188       0x21 build//Users/marcus/Dropbox/Studienarbeit/Sourcecode/StudienarbeitX/Library/libmaple/wirish/wirish_analog.o
 .debug_pubnames
                0x000021a9       0x6c build//Users/marcus/Dropbox/Studienarbeit/Sourcecode/StudienarbeitX/Library/libmaple/wirish/wirish_digital.o
 .debug_pubnames
                0x00002215       0x37 build//Users/marcus/Dropbox/Studienarbeit/Sourcecode/StudienarbeitX/Library/libmaple/wirish/wirish_math.o
 .debug_pubnames
                0x0000224c       0x1f build//Users/marcus/Dropbox/Studienarbeit/Sourcecode/StudienarbeitX/Library/libmaple/wirish/wirish_shift.o
 .debug_pubnames
                0x0000226b       0x32 build//Users/marcus/Dropbox/Studienarbeit/Sourcecode/StudienarbeitX/Library/libmaple/wirish/wirish_time.o
 .debug_pubnames
                0x0000229d       0xb0 build//Users/marcus/Dropbox/Studienarbeit/Sourcecode/StudienarbeitX/Library/libmaple/wirish/stm32f1/boards_setup.o
 .debug_pubnames
                0x0000234d       0x1e build//Users/marcus/Dropbox/Studienarbeit/Sourcecode/StudienarbeitX/Library/libmaple/wirish/stm32f1/wirish_digital.o
 .debug_pubnames
                0x0000236b       0x3d build//Users/marcus/Dropbox/Studienarbeit/Sourcecode/StudienarbeitX/Library/libmaple/wirish/stm32f1/wirish_debug.o
 .debug_pubnames
                0x000023a8       0x52 build//Users/marcus/Dropbox/Studienarbeit/Sourcecode/StudienarbeitX/Library/libmaple/wirish/boards/maple/board.o
 .debug_pubnames
                0x000023fa       0xdd build//Users/marcus/Dropbox/Studienarbeit/Sourcecode/StudienarbeitX/Library/libmaple/libraries/Servo/Servo.o
 .debug_pubnames
                0x000024d7      0x3d8 build//Users/marcus/Dropbox/Studienarbeit/Sourcecode/StudienarbeitX/Library/libmaple/libraries/LiquidCrystal/LiquidCrystal.o
 .debug_pubnames
                0x000028af      0x145 build//Users/marcus/Dropbox/Studienarbeit/Sourcecode/StudienarbeitX/Library/libmaple/libraries/Wire/WireBase.o
 .debug_pubnames
                0x000029f4       0xb5 build//Users/marcus/Dropbox/Studienarbeit/Sourcecode/StudienarbeitX/Library/libmaple/libraries/Wire/HardWire.o
 .debug_pubnames
                0x00002aa9      0x199 build//Users/marcus/Dropbox/Studienarbeit/Sourcecode/StudienarbeitX/Library/libmaple/libraries/Wire/Wire.o
 .debug_pubnames
                0x00002c42      0x42c build//Users/marcus/Dropbox/Studienarbeit/Sourcecode/StudienarbeitX/Library/TinyWebServer/TinyWebServer.o
 .debug_pubnames
                0x0000306e      0x21b build//Users/marcus/Dropbox/Studienarbeit/Sourcecode/StudienarbeitX/Library/WiFlySerial/SpiUart.o
 .debug_pubnames
                0x00003289      0x834 build//Users/marcus/Dropbox/Studienarbeit/Sourcecode/StudienarbeitX/Library/WiFlySerial/WiFlySerial.o
 .debug_pubnames
                0x00003abd      0x254 build//Users/marcus/Dropbox/Studienarbeit/Sourcecode/StudienarbeitX/Library/WiFlySerial/WFSEthernet.o
 .debug_pubnames
                0x00003d11       0xff build//Users/marcus/Dropbox/Studienarbeit/Sourcecode/StudienarbeitX/Library/WiFlySerial/WFSEthernetServer.o
 .debug_pubnames
                0x00003e10      0x27b build//Users/marcus/Dropbox/Studienarbeit/Sourcecode/StudienarbeitX/Library/WiFlySerial/WFSEthernetClient.o
 .debug_pubnames
                0x0000408b      0x15f build//Users/marcus/Dropbox/Studienarbeit/Sourcecode/StudienarbeitX/Library/WiFlySerial/WFSIPAddress.o
 .debug_pubnames
                0x000041ea       0xe1 build//Users/marcus/Dropbox/Studienarbeit/Sourcecode/StudienarbeitX/TWS-HelloWorld.o
 .debug_pubnames
                0x000042cb       0x20 /usr/local/bin/../lib/gcc/arm-none-eabi/4.4.1/thumb2/libgcc.a(_fixdfdi.o)
 .debug_pubnames
                0x000042eb       0x23 /usr/local/bin/../lib/gcc/arm-none-eabi/4.4.1/thumb2/libgcc.a(_fixunsdfdi.o)
 .debug_pubnames
                0x0000430e       0x45 /usr/local/bin/../lib/gcc/arm-none-eabi/4.4.1/thumb2/libgcc.a(bpabi.o)
 .debug_pubnames
                0x00004353       0x1f /usr/local/bin/../lib/gcc/arm-none-eabi/4.4.1/thumb2/libgcc.a(_divdi3.o)
 .debug_pubnames
                0x00004372       0x20 /usr/local/bin/../lib/gcc/arm-none-eabi/4.4.1/thumb2/libgcc.a(_udivdi3.o)

.debug_info     0x00000000    0x29def
 *(.debug_info .gnu.linkonce.wi.*)
 .debug_info    0x00000000       0x8f /usr/local/bin/../lib/gcc/arm-none-eabi/4.4.1/thumb2/crti.o
 .debug_info    0x0000008f      0x55f build//Users/marcus/Dropbox/Studienarbeit/Sourcecode/StudienarbeitX/Library/libmaple/libmaple/adc.o
 .debug_info    0x000005ee      0x4f7 build//Users/marcus/Dropbox/Studienarbeit/Sourcecode/StudienarbeitX/Library/libmaple/libmaple/dac.o
 .debug_info    0x00000ae5      0x707 build//Users/marcus/Dropbox/Studienarbeit/Sourcecode/StudienarbeitX/Library/libmaple/libmaple/dma.o
 .debug_info    0x000011ec      0xad4 build//Users/marcus/Dropbox/Studienarbeit/Sourcecode/StudienarbeitX/Library/libmaple/libmaple/exti.o
 .debug_info    0x00001cc0      0x11a build//Users/marcus/Dropbox/Studienarbeit/Sourcecode/StudienarbeitX/Library/libmaple/libmaple/flash.o
 .debug_info    0x00001dda      0x2df build//Users/marcus/Dropbox/Studienarbeit/Sourcecode/StudienarbeitX/Library/libmaple/libmaple/gpio.o
 .debug_info    0x000020b9      0x146 build//Users/marcus/Dropbox/Studienarbeit/Sourcecode/StudienarbeitX/Library/libmaple/libmaple/iwdg.o
 .debug_info    0x000021ff      0x53a build//Users/marcus/Dropbox/Studienarbeit/Sourcecode/StudienarbeitX/Library/libmaple/libmaple/nvic.o
 .debug_info    0x00002739      0x199 build//Users/marcus/Dropbox/Studienarbeit/Sourcecode/StudienarbeitX/Library/libmaple/libmaple/pwr.o
 .debug_info    0x000028d2      0x4bb build//Users/marcus/Dropbox/Studienarbeit/Sourcecode/StudienarbeitX/Library/libmaple/libmaple/rcc.o
 .debug_info    0x00002d8d      0x967 build//Users/marcus/Dropbox/Studienarbeit/Sourcecode/StudienarbeitX/Library/libmaple/libmaple/spi.o
 .debug_info    0x000036f4      0x167 build//Users/marcus/Dropbox/Studienarbeit/Sourcecode/StudienarbeitX/Library/libmaple/libmaple/systick.o
 .debug_info    0x0000385b      0xfdc build//Users/marcus/Dropbox/Studienarbeit/Sourcecode/StudienarbeitX/Library/libmaple/libmaple/timer.o
 .debug_info    0x00004837      0xa50 build//Users/marcus/Dropbox/Studienarbeit/Sourcecode/StudienarbeitX/Library/libmaple/libmaple/usart.o
 .debug_info    0x00005287      0x55e build//Users/marcus/Dropbox/Studienarbeit/Sourcecode/StudienarbeitX/Library/libmaple/libmaple/usart_private.o
 .debug_info    0x000057e5      0x8b5 build//Users/marcus/Dropbox/Studienarbeit/Sourcecode/StudienarbeitX/Library/libmaple/libmaple/util.o
 .debug_info    0x0000609a     0x1060 build//Users/marcus/Dropbox/Studienarbeit/Sourcecode/StudienarbeitX/Library/libmaple/libmaple/i2c.o
 .debug_info    0x000070fa      0xb2e build//Users/marcus/Dropbox/Studienarbeit/Sourcecode/StudienarbeitX/Library/libmaple/libmaple/usb/stm32f1/usb.o
 .debug_info    0x00007c28      0x2ea build//Users/marcus/Dropbox/Studienarbeit/Sourcecode/StudienarbeitX/Library/libmaple/libmaple/usb/stm32f1/usb_reg_map.o
 .debug_info    0x00007f12     0x1b1d build//Users/marcus/Dropbox/Studienarbeit/Sourcecode/StudienarbeitX/Library/libmaple/libmaple/usb/stm32f1/usb_cdcacm.o
 .debug_info    0x00009a2f      0xbfd build//Users/marcus/Dropbox/Studienarbeit/Sourcecode/StudienarbeitX/Library/libmaple/libmaple/usb/usb_lib/usb_core.o
 .debug_info    0x0000a62c      0x454 build//Users/marcus/Dropbox/Studienarbeit/Sourcecode/StudienarbeitX/Library/libmaple/libmaple/usb/usb_lib/usb_init.o
 .debug_info    0x0000aa80      0x16d build//Users/marcus/Dropbox/Studienarbeit/Sourcecode/StudienarbeitX/Library/libmaple/libmaple/usb/usb_lib/usb_mem.o
 .debug_info    0x0000abed      0xcc3 build//Users/marcus/Dropbox/Studienarbeit/Sourcecode/StudienarbeitX/Library/libmaple/libmaple/usb/usb_lib/usb_regs.o
 .debug_info    0x0000b8b0      0x7ab build//Users/marcus/Dropbox/Studienarbeit/Sourcecode/StudienarbeitX/Library/libmaple/libmaple/stm32f1/adc.o
 .debug_info    0x0000c05b      0x484 build//Users/marcus/Dropbox/Studienarbeit/Sourcecode/StudienarbeitX/Library/libmaple/libmaple/stm32f1/bkp.o
 .debug_info    0x0000c4df     0x15b8 build//Users/marcus/Dropbox/Studienarbeit/Sourcecode/StudienarbeitX/Library/libmaple/libmaple/stm32f1/dma.o
 .debug_info    0x0000da97      0x1d9 build//Users/marcus/Dropbox/Studienarbeit/Sourcecode/StudienarbeitX/Library/libmaple/libmaple/stm32f1/exti.o
 .debug_info    0x0000dc70       0x25 build//Users/marcus/Dropbox/Studienarbeit/Sourcecode/StudienarbeitX/Library/libmaple/libmaple/stm32f1/fsmc.o
 .debug_info    0x0000dc95      0x5b5 build//Users/marcus/Dropbox/Studienarbeit/Sourcecode/StudienarbeitX/Library/libmaple/libmaple/stm32f1/gpio.o
 .debug_info    0x0000e24a      0x9cb build//Users/marcus/Dropbox/Studienarbeit/Sourcecode/StudienarbeitX/Library/libmaple/libmaple/stm32f1/i2c.o
 .debug_info    0x0000ec15      0x84b build//Users/marcus/Dropbox/Studienarbeit/Sourcecode/StudienarbeitX/Library/libmaple/libmaple/stm32f1/rcc.o
 .debug_info    0x0000f460      0x6cf build//Users/marcus/Dropbox/Studienarbeit/Sourcecode/StudienarbeitX/Library/libmaple/libmaple/stm32f1/spi.o
 .debug_info    0x0000fb2f      0xd24 build//Users/marcus/Dropbox/Studienarbeit/Sourcecode/StudienarbeitX/Library/libmaple/libmaple/stm32f1/timer.o
 .debug_info    0x00010853      0x9c7 build//Users/marcus/Dropbox/Studienarbeit/Sourcecode/StudienarbeitX/Library/libmaple/libmaple/stm32f1/usart.o
 .debug_info    0x0001121a      0x10e build//Users/marcus/Dropbox/Studienarbeit/Sourcecode/StudienarbeitX/Library/libmaple/wirish/start_c.o
 .debug_info    0x00011328      0x54a build//Users/marcus/Dropbox/Studienarbeit/Sourcecode/StudienarbeitX/Library/libmaple/wirish/syscalls.o
 .debug_info    0x00011872      0xabe build//Users/marcus/Dropbox/Studienarbeit/Sourcecode/StudienarbeitX/Library/libmaple/wirish/stm32f1/util_hooks.o
 .debug_info    0x00012330      0xf3a build//Users/marcus/Dropbox/Studienarbeit/Sourcecode/StudienarbeitX/Library/libmaple/wirish/boards.o
 .debug_info    0x0001326a       0x3c build//Users/marcus/Dropbox/Studienarbeit/Sourcecode/StudienarbeitX/Library/libmaple/wirish/cxxabi-compat.o
 .debug_info    0x000132a6      0xa68 build//Users/marcus/Dropbox/Studienarbeit/Sourcecode/StudienarbeitX/Library/libmaple/wirish/ext_interrupts.o
 .debug_info    0x00013d0e     0x12ef build//Users/marcus/Dropbox/Studienarbeit/Sourcecode/StudienarbeitX/Library/libmaple/wirish/HardwareSerial.o
 .debug_info    0x00014ffd     0x1392 build//Users/marcus/Dropbox/Studienarbeit/Sourcecode/StudienarbeitX/Library/libmaple/wirish/HardwareTimer.o
 .debug_info    0x0001638f      0xb0c build//Users/marcus/Dropbox/Studienarbeit/Sourcecode/StudienarbeitX/Library/libmaple/wirish/Print.o
 .debug_info    0x00016e9b      0x9ad build//Users/marcus/Dropbox/Studienarbeit/Sourcecode/StudienarbeitX/Library/libmaple/wirish/pwm.o
 .debug_info    0x00017848      0xa47 build//Users/marcus/Dropbox/Studienarbeit/Sourcecode/StudienarbeitX/Library/libmaple/wirish/usb_serial.o
 .debug_info    0x0001828f     0x18b8 build//Users/marcus/Dropbox/Studienarbeit/Sourcecode/StudienarbeitX/Library/libmaple/wirish/HardwareSPI.o
 .debug_info    0x00019b47      0x91f build//Users/marcus/Dropbox/Studienarbeit/Sourcecode/StudienarbeitX/Library/libmaple/wirish/wirish_analog.o
 .debug_info    0x0001a466      0xb2f build//Users/marcus/Dropbox/Studienarbeit/Sourcecode/StudienarbeitX/Library/libmaple/wirish/wirish_digital.o
 .debug_info    0x0001af95      0x135 build//Users/marcus/Dropbox/Studienarbeit/Sourcecode/StudienarbeitX/Library/libmaple/wirish/wirish_math.o
 .debug_info    0x0001b0ca      0x13a build//Users/marcus/Dropbox/Studienarbeit/Sourcecode/StudienarbeitX/Library/libmaple/wirish/wirish_shift.o
 .debug_info    0x0001b204      0x122 build//Users/marcus/Dropbox/Studienarbeit/Sourcecode/StudienarbeitX/Library/libmaple/wirish/wirish_time.o
 .debug_info    0x0001b326      0x408 build//Users/marcus/Dropbox/Studienarbeit/Sourcecode/StudienarbeitX/Library/libmaple/wirish/stm32f1/boards_setup.o
 .debug_info    0x0001b72e      0x9ed build//Users/marcus/Dropbox/Studienarbeit/Sourcecode/StudienarbeitX/Library/libmaple/wirish/stm32f1/wirish_digital.o
 .debug_info    0x0001c11b      0x189 build//Users/marcus/Dropbox/Studienarbeit/Sourcecode/StudienarbeitX/Library/libmaple/wirish/stm32f1/wirish_debug.o
 .debug_info    0x0001c2a4      0xa24 build//Users/marcus/Dropbox/Studienarbeit/Sourcecode/StudienarbeitX/Library/libmaple/wirish/boards/maple/board.o
 .debug_info    0x0001ccc8      0xff2 build//Users/marcus/Dropbox/Studienarbeit/Sourcecode/StudienarbeitX/Library/libmaple/libraries/Servo/Servo.o
 .debug_info    0x0001dcba     0x1096 build//Users/marcus/Dropbox/Studienarbeit/Sourcecode/StudienarbeitX/Library/libmaple/libraries/LiquidCrystal/LiquidCrystal.o
 .debug_info    0x0001ed50      0xc8e build//Users/marcus/Dropbox/Studienarbeit/Sourcecode/StudienarbeitX/Library/libmaple/libraries/Wire/WireBase.o
 .debug_info    0x0001f9de      0x9de build//Users/marcus/Dropbox/Studienarbeit/Sourcecode/StudienarbeitX/Library/libmaple/libraries/Wire/HardWire.o
 .debug_info    0x000203bc      0xd69 build//Users/marcus/Dropbox/Studienarbeit/Sourcecode/StudienarbeitX/Library/libmaple/libraries/Wire/Wire.o
 .debug_info    0x00021125     0x1425 build//Users/marcus/Dropbox/Studienarbeit/Sourcecode/StudienarbeitX/Library/TinyWebServer/TinyWebServer.o
 .debug_info    0x0002254a      0xe66 build//Users/marcus/Dropbox/Studienarbeit/Sourcecode/StudienarbeitX/Library/WiFlySerial/SpiUart.o
 .debug_info    0x000233b0     0x28ec build//Users/marcus/Dropbox/Studienarbeit/Sourcecode/StudienarbeitX/Library/WiFlySerial/WiFlySerial.o
 .debug_info    0x00025c9c      0xb35 build//Users/marcus/Dropbox/Studienarbeit/Sourcecode/StudienarbeitX/Library/WiFlySerial/WFSEthernet.o
 .debug_info    0x000267d1      0x428 build//Users/marcus/Dropbox/Studienarbeit/Sourcecode/StudienarbeitX/Library/WiFlySerial/WFSEthernetServer.o
 .debug_info    0x00026bf9      0x996 build//Users/marcus/Dropbox/Studienarbeit/Sourcecode/StudienarbeitX/Library/WiFlySerial/WFSEthernetClient.o
 .debug_info    0x0002758f      0x505 build//Users/marcus/Dropbox/Studienarbeit/Sourcecode/StudienarbeitX/Library/WiFlySerial/WFSIPAddress.o
 .debug_info    0x00027a94      0xbf0 build//Users/marcus/Dropbox/Studienarbeit/Sourcecode/StudienarbeitX/TWS-HelloWorld.o
 .debug_info    0x00028684       0x25 build/main.o
 .debug_info    0x000286a9       0xbf /usr/local/bin/../lib/gcc/arm-none-eabi/4.4.1/thumb2/libgcc.a(_arm_addsubdf3.o)
 .debug_info    0x00028768       0xbf /usr/local/bin/../lib/gcc/arm-none-eabi/4.4.1/thumb2/libgcc.a(_arm_muldivdf3.o)
 .debug_info    0x00028827       0xbf /usr/local/bin/../lib/gcc/arm-none-eabi/4.4.1/thumb2/libgcc.a(_arm_cmpdf2.o)
 .debug_info    0x000288e6       0xbf /usr/local/bin/../lib/gcc/arm-none-eabi/4.4.1/thumb2/libgcc.a(_arm_fixdfsi.o)
 .debug_info    0x000289a5       0xbf /usr/local/bin/../lib/gcc/arm-none-eabi/4.4.1/thumb2/libgcc.a(_arm_muldivsf3.o)
 .debug_info    0x00028a64       0xbf /usr/local/bin/../lib/gcc/arm-none-eabi/4.4.1/thumb2/libgcc.a(_arm_fixsfsi.o)
 .debug_info    0x00028b23       0xba /usr/local/bin/../lib/gcc/arm-none-eabi/4.4.1/thumb2/libgcc.a(_aeabi_uldivmod.o)
 .debug_info    0x00028bdd       0xca /usr/local/bin/../lib/gcc/arm-none-eabi/4.4.1/thumb2/libgcc.a(_fixdfdi.o)
 .debug_info    0x00028ca7       0xf4 /usr/local/bin/../lib/gcc/arm-none-eabi/4.4.1/thumb2/libgcc.a(_fixunsdfdi.o)
 .debug_info    0x00028d9b       0xe2 /usr/local/bin/../lib/gcc/arm-none-eabi/4.4.1/thumb2/libgcc.a(bpabi.o)
 .debug_info    0x00028e7d       0xc0 /usr/local/bin/../lib/gcc/arm-none-eabi/4.4.1/thumb2/libgcc.a(_dvmd_tls.o)
 .debug_info    0x00028f3d       0xbf /usr/local/bin/../lib/gcc/arm-none-eabi/4.4.1/thumb2/libgcc.a(_arm_fixunsdfsi.o)
 .debug_info    0x00028ffc      0x665 /usr/local/bin/../lib/gcc/arm-none-eabi/4.4.1/thumb2/libgcc.a(_divdi3.o)
 .debug_info    0x00029661      0x63f /usr/local/bin/../lib/gcc/arm-none-eabi/4.4.1/thumb2/libgcc.a(_udivdi3.o)
 .debug_info    0x00029ca0       0xc0 /usr/local/bin/../lib/gcc/arm-none-eabi/4.4.1/thumb2/libgcc.a(_udivsi3.o)
 .debug_info    0x00029d60       0x8f /usr/local/bin/../lib/gcc/arm-none-eabi/4.4.1/thumb2/crtn.o

.debug_abbrev   0x00000000     0x8d19
 *(.debug_abbrev)
 .debug_abbrev  0x00000000       0x12 /usr/local/bin/../lib/gcc/arm-none-eabi/4.4.1/thumb2/crti.o
 .debug_abbrev  0x00000012      0x1a1 build//Users/marcus/Dropbox/Studienarbeit/Sourcecode/StudienarbeitX/Library/libmaple/libmaple/adc.o
 .debug_abbrev  0x000001b3      0x12c build//Users/marcus/Dropbox/Studienarbeit/Sourcecode/StudienarbeitX/Library/libmaple/libmaple/dac.o
 .debug_abbrev  0x000002df      0x14b build//Users/marcus/Dropbox/Studienarbeit/Sourcecode/StudienarbeitX/Library/libmaple/libmaple/dma.o
 .debug_abbrev  0x0000042a      0x1f3 build//Users/marcus/Dropbox/Studienarbeit/Sourcecode/StudienarbeitX/Library/libmaple/libmaple/exti.o
 .debug_abbrev  0x0000061d       0xa0 build//Users/marcus/Dropbox/Studienarbeit/Sourcecode/StudienarbeitX/Library/libmaple/libmaple/flash.o
 .debug_abbrev  0x000006bd       0xd0 build//Users/marcus/Dropbox/Studienarbeit/Sourcecode/StudienarbeitX/Library/libmaple/libmaple/gpio.o
 .debug_abbrev  0x0000078d       0xaf build//Users/marcus/Dropbox/Studienarbeit/Sourcecode/StudienarbeitX/Library/libmaple/libmaple/iwdg.o
 .debug_abbrev  0x0000083c      0x133 build//Users/marcus/Dropbox/Studienarbeit/Sourcecode/StudienarbeitX/Library/libmaple/libmaple/nvic.o
 .debug_abbrev  0x0000096f       0x59 build//Users/marcus/Dropbox/Studienarbeit/Sourcecode/StudienarbeitX/Library/libmaple/libmaple/pwr.o
 .debug_abbrev  0x000009c8      0x1aa build//Users/marcus/Dropbox/Studienarbeit/Sourcecode/StudienarbeitX/Library/libmaple/libmaple/rcc.o
 .debug_abbrev  0x00000b72      0x23d build//Users/marcus/Dropbox/Studienarbeit/Sourcecode/StudienarbeitX/Library/libmaple/libmaple/spi.o
 .debug_abbrev  0x00000daf       0xeb build//Users/marcus/Dropbox/Studienarbeit/Sourcecode/StudienarbeitX/Library/libmaple/libmaple/systick.o
 .debug_abbrev  0x00000e9a      0x34e build//Users/marcus/Dropbox/Studienarbeit/Sourcecode/StudienarbeitX/Library/libmaple/libmaple/timer.o
 .debug_abbrev  0x000011e8      0x297 build//Users/marcus/Dropbox/Studienarbeit/Sourcecode/StudienarbeitX/Library/libmaple/libmaple/usart.o
 .debug_abbrev  0x0000147f      0x118 build//Users/marcus/Dropbox/Studienarbeit/Sourcecode/StudienarbeitX/Library/libmaple/libmaple/usart_private.o
 .debug_abbrev  0x00001597      0x243 build//Users/marcus/Dropbox/Studienarbeit/Sourcecode/StudienarbeitX/Library/libmaple/libmaple/util.o
 .debug_abbrev  0x000017da      0x3b5 build//Users/marcus/Dropbox/Studienarbeit/Sourcecode/StudienarbeitX/Library/libmaple/libmaple/i2c.o
 .debug_abbrev  0x00001b8f      0x36a build//Users/marcus/Dropbox/Studienarbeit/Sourcecode/StudienarbeitX/Library/libmaple/libmaple/usb/stm32f1/usb.o
 .debug_abbrev  0x00001ef9      0x18c build//Users/marcus/Dropbox/Studienarbeit/Sourcecode/StudienarbeitX/Library/libmaple/libmaple/usb/stm32f1/usb_reg_map.o
 .debug_abbrev  0x00002085      0x43d build//Users/marcus/Dropbox/Studienarbeit/Sourcecode/StudienarbeitX/Library/libmaple/libmaple/usb/stm32f1/usb_cdcacm.o
 .debug_abbrev  0x000024c2      0x317 build//Users/marcus/Dropbox/Studienarbeit/Sourcecode/StudienarbeitX/Library/libmaple/libmaple/usb/usb_lib/usb_core.o
 .debug_abbrev  0x000027d9      0x102 build//Users/marcus/Dropbox/Studienarbeit/Sourcecode/StudienarbeitX/Library/libmaple/libmaple/usb/usb_lib/usb_init.o
 .debug_abbrev  0x000028db       0xb3 build//Users/marcus/Dropbox/Studienarbeit/Sourcecode/StudienarbeitX/Library/libmaple/libmaple/usb/usb_lib/usb_mem.o
 .debug_abbrev  0x0000298e      0x1d4 build//Users/marcus/Dropbox/Studienarbeit/Sourcecode/StudienarbeitX/Library/libmaple/libmaple/usb/usb_lib/usb_regs.o
 .debug_abbrev  0x00002b62      0x1f3 build//Users/marcus/Dropbox/Studienarbeit/Sourcecode/StudienarbeitX/Library/libmaple/libmaple/stm32f1/adc.o
 .debug_abbrev  0x00002d55      0x168 build//Users/marcus/Dropbox/Studienarbeit/Sourcecode/StudienarbeitX/Library/libmaple/libmaple/stm32f1/bkp.o
 .debug_abbrev  0x00002ebd      0x3be build//Users/marcus/Dropbox/Studienarbeit/Sourcecode/StudienarbeitX/Library/libmaple/libmaple/stm32f1/dma.o
 .debug_abbrev  0x0000327b       0xa9 build//Users/marcus/Dropbox/Studienarbeit/Sourcecode/StudienarbeitX/Library/libmaple/libmaple/stm32f1/exti.o
 .debug_abbrev  0x00003324       0x14 build//Users/marcus/Dropbox/Studienarbeit/Sourcecode/StudienarbeitX/Library/libmaple/libmaple/stm32f1/fsmc.o
 .debug_abbrev  0x00003338      0x15b build//Users/marcus/Dropbox/Studienarbeit/Sourcecode/StudienarbeitX/Library/libmaple/libmaple/stm32f1/gpio.o
 .debug_abbrev  0x00003493      0x19c build//Users/marcus/Dropbox/Studienarbeit/Sourcecode/StudienarbeitX/Library/libmaple/libmaple/stm32f1/i2c.o
 .debug_abbrev  0x0000362f      0x21d build//Users/marcus/Dropbox/Studienarbeit/Sourcecode/StudienarbeitX/Library/libmaple/libmaple/stm32f1/rcc.o
 .debug_abbrev  0x0000384c      0x118 build//Users/marcus/Dropbox/Studienarbeit/Sourcecode/StudienarbeitX/Library/libmaple/libmaple/stm32f1/spi.o
 .debug_abbrev  0x00003964      0x1a9 build//Users/marcus/Dropbox/Studienarbeit/Sourcecode/StudienarbeitX/Library/libmaple/libmaple/stm32f1/timer.o
 .debug_abbrev  0x00003b0d      0x252 build//Users/marcus/Dropbox/Studienarbeit/Sourcecode/StudienarbeitX/Library/libmaple/libmaple/stm32f1/usart.o
 .debug_abbrev  0x00003d5f       0xa0 build//Users/marcus/Dropbox/Studienarbeit/Sourcecode/StudienarbeitX/Library/libmaple/wirish/start_c.o
 .debug_abbrev  0x00003dff      0x18c build//Users/marcus/Dropbox/Studienarbeit/Sourcecode/StudienarbeitX/Library/libmaple/wirish/syscalls.o
 .debug_abbrev  0x00003f8b      0x223 build//Users/marcus/Dropbox/Studienarbeit/Sourcecode/StudienarbeitX/Library/libmaple/wirish/stm32f1/util_hooks.o
 .debug_abbrev  0x000041ae      0x307 build//Users/marcus/Dropbox/Studienarbeit/Sourcecode/StudienarbeitX/Library/libmaple/wirish/boards.o
 .debug_abbrev  0x000044b5       0x29 build//Users/marcus/Dropbox/Studienarbeit/Sourcecode/StudienarbeitX/Library/libmaple/wirish/cxxabi-compat.o
 .debug_abbrev  0x000044de      0x1a8 build//Users/marcus/Dropbox/Studienarbeit/Sourcecode/StudienarbeitX/Library/libmaple/wirish/ext_interrupts.o
 .debug_abbrev  0x00004686      0x3fc build//Users/marcus/Dropbox/Studienarbeit/Sourcecode/StudienarbeitX/Library/libmaple/wirish/HardwareSerial.o
 .debug_abbrev  0x00004a82      0x38f build//Users/marcus/Dropbox/Studienarbeit/Sourcecode/StudienarbeitX/Library/libmaple/wirish/HardwareTimer.o
 .debug_abbrev  0x00004e11      0x1ff build//Users/marcus/Dropbox/Studienarbeit/Sourcecode/StudienarbeitX/Library/libmaple/wirish/Print.o
 .debug_abbrev  0x00005010      0x1bf build//Users/marcus/Dropbox/Studienarbeit/Sourcecode/StudienarbeitX/Library/libmaple/wirish/pwm.o
 .debug_abbrev  0x000051cf      0x33f build//Users/marcus/Dropbox/Studienarbeit/Sourcecode/StudienarbeitX/Library/libmaple/wirish/usb_serial.o
 .debug_abbrev  0x0000550e      0x414 build//Users/marcus/Dropbox/Studienarbeit/Sourcecode/StudienarbeitX/Library/libmaple/wirish/HardwareSPI.o
 .debug_abbrev  0x00005922      0x142 build//Users/marcus/Dropbox/Studienarbeit/Sourcecode/StudienarbeitX/Library/libmaple/wirish/wirish_analog.o
 .debug_abbrev  0x00005a64      0x21a build//Users/marcus/Dropbox/Studienarbeit/Sourcecode/StudienarbeitX/Library/libmaple/wirish/wirish_digital.o
 .debug_abbrev  0x00005c7e       0x88 build//Users/marcus/Dropbox/Studienarbeit/Sourcecode/StudienarbeitX/Library/libmaple/wirish/wirish_math.o
 .debug_abbrev  0x00005d06       0xaf build//Users/marcus/Dropbox/Studienarbeit/Sourcecode/StudienarbeitX/Library/libmaple/wirish/wirish_shift.o
 .debug_abbrev  0x00005db5       0xe5 build//Users/marcus/Dropbox/Studienarbeit/Sourcecode/StudienarbeitX/Library/libmaple/wirish/wirish_time.o
 .debug_abbrev  0x00005e9a      0x143 build//Users/marcus/Dropbox/Studienarbeit/Sourcecode/StudienarbeitX/Library/libmaple/wirish/stm32f1/boards_setup.o
 .debug_abbrev  0x00005fdd      0x167 build//Users/marcus/Dropbox/Studienarbeit/Sourcecode/StudienarbeitX/Library/libmaple/wirish/stm32f1/wirish_digital.o
 .debug_abbrev  0x00006144       0xda build//Users/marcus/Dropbox/Studienarbeit/Sourcecode/StudienarbeitX/Library/libmaple/wirish/stm32f1/wirish_debug.o
 .debug_abbrev  0x0000621e      0x160 build//Users/marcus/Dropbox/Studienarbeit/Sourcecode/StudienarbeitX/Library/libmaple/wirish/boards/maple/board.o
 .debug_abbrev  0x0000637e      0x375 build//Users/marcus/Dropbox/Studienarbeit/Sourcecode/StudienarbeitX/Library/libmaple/libraries/Servo/Servo.o
 .debug_abbrev  0x000066f3      0x2b2 build//Users/marcus/Dropbox/Studienarbeit/Sourcecode/StudienarbeitX/Library/libmaple/libraries/LiquidCrystal/LiquidCrystal.o
 .debug_abbrev  0x000069a5      0x265 build//Users/marcus/Dropbox/Studienarbeit/Sourcecode/StudienarbeitX/Library/libmaple/libraries/Wire/WireBase.o
 .debug_abbrev  0x00006c0a      0x214 build//Users/marcus/Dropbox/Studienarbeit/Sourcecode/StudienarbeitX/Library/libmaple/libraries/Wire/HardWire.o
 .debug_abbrev  0x00006e1e      0x2a2 build//Users/marcus/Dropbox/Studienarbeit/Sourcecode/StudienarbeitX/Library/libmaple/libraries/Wire/Wire.o
 .debug_abbrev  0x000070c0      0x503 build//Users/marcus/Dropbox/Studienarbeit/Sourcecode/StudienarbeitX/Library/TinyWebServer/TinyWebServer.o
 .debug_abbrev  0x000075c3      0x290 build//Users/marcus/Dropbox/Studienarbeit/Sourcecode/StudienarbeitX/Library/WiFlySerial/SpiUart.o
 .debug_abbrev  0x00007853      0x3f4 build//Users/marcus/Dropbox/Studienarbeit/Sourcecode/StudienarbeitX/Library/WiFlySerial/WiFlySerial.o
 .debug_abbrev  0x00007c47      0x2a3 build//Users/marcus/Dropbox/Studienarbeit/Sourcecode/StudienarbeitX/Library/WiFlySerial/WFSEthernet.o
 .debug_abbrev  0x00007eea      0x229 build//Users/marcus/Dropbox/Studienarbeit/Sourcecode/StudienarbeitX/Library/WiFlySerial/WFSEthernetServer.o
 .debug_abbrev  0x00008113      0x293 build//Users/marcus/Dropbox/Studienarbeit/Sourcecode/StudienarbeitX/Library/WiFlySerial/WFSEthernetClient.o
 .debug_abbrev  0x000083a6      0x15e build//Users/marcus/Dropbox/Studienarbeit/Sourcecode/StudienarbeitX/Library/WiFlySerial/WFSIPAddress.o
 .debug_abbrev  0x00008504      0x316 build//Users/marcus/Dropbox/Studienarbeit/Sourcecode/StudienarbeitX/TWS-HelloWorld.o
 .debug_abbrev  0x0000881a       0x14 build/main.o
 .debug_abbrev  0x0000882e       0x14 /usr/local/bin/../lib/gcc/arm-none-eabi/4.4.1/thumb2/libgcc.a(_arm_addsubdf3.o)
 .debug_abbrev  0x00008842       0x14 /usr/local/bin/../lib/gcc/arm-none-eabi/4.4.1/thumb2/libgcc.a(_arm_muldivdf3.o)
 .debug_abbrev  0x00008856       0x14 /usr/local/bin/../lib/gcc/arm-none-eabi/4.4.1/thumb2/libgcc.a(_arm_cmpdf2.o)
 .debug_abbrev  0x0000886a       0x14 /usr/local/bin/../lib/gcc/arm-none-eabi/4.4.1/thumb2/libgcc.a(_arm_fixdfsi.o)
 .debug_abbrev  0x0000887e       0x14 /usr/local/bin/../lib/gcc/arm-none-eabi/4.4.1/thumb2/libgcc.a(_arm_muldivsf3.o)
 .debug_abbrev  0x00008892       0x14 /usr/local/bin/../lib/gcc/arm-none-eabi/4.4.1/thumb2/libgcc.a(_arm_fixsfsi.o)
 .debug_abbrev  0x000088a6       0x14 /usr/local/bin/../lib/gcc/arm-none-eabi/4.4.1/thumb2/libgcc.a(_aeabi_uldivmod.o)
 .debug_abbrev  0x000088ba       0x66 /usr/local/bin/../lib/gcc/arm-none-eabi/4.4.1/thumb2/libgcc.a(_fixdfdi.o)
 .debug_abbrev  0x00008920       0x7c /usr/local/bin/../lib/gcc/arm-none-eabi/4.4.1/thumb2/libgcc.a(_fixunsdfdi.o)
 .debug_abbrev  0x0000899c       0x6c /usr/local/bin/../lib/gcc/arm-none-eabi/4.4.1/thumb2/libgcc.a(bpabi.o)
 .debug_abbrev  0x00008a08       0x14 /usr/local/bin/../lib/gcc/arm-none-eabi/4.4.1/thumb2/libgcc.a(_dvmd_tls.o)
 .debug_abbrev  0x00008a1c       0x14 /usr/local/bin/../lib/gcc/arm-none-eabi/4.4.1/thumb2/libgcc.a(_arm_fixunsdfsi.o)
 .debug_abbrev  0x00008a30      0x169 /usr/local/bin/../lib/gcc/arm-none-eabi/4.4.1/thumb2/libgcc.a(_divdi3.o)
 .debug_abbrev  0x00008b99      0x15a /usr/local/bin/../lib/gcc/arm-none-eabi/4.4.1/thumb2/libgcc.a(_udivdi3.o)
 .debug_abbrev  0x00008cf3       0x14 /usr/local/bin/../lib/gcc/arm-none-eabi/4.4.1/thumb2/libgcc.a(_udivsi3.o)
 .debug_abbrev  0x00008d07       0x12 /usr/local/bin/../lib/gcc/arm-none-eabi/4.4.1/thumb2/crtn.o

.debug_line     0x00000000    0x13135
 *(.debug_line)
 .debug_line    0x00000000       0x6f /usr/local/bin/../lib/gcc/arm-none-eabi/4.4.1/thumb2/crti.o
 .debug_line    0x0000006f      0x23f build//Users/marcus/Dropbox/Studienarbeit/Sourcecode/StudienarbeitX/Library/libmaple/libmaple/adc.o
 .debug_line    0x000002ae      0x24a build//Users/marcus/Dropbox/Studienarbeit/Sourcecode/StudienarbeitX/Library/libmaple/libmaple/dac.o
 .debug_line    0x000004f8      0x21b build//Users/marcus/Dropbox/Studienarbeit/Sourcecode/StudienarbeitX/Library/libmaple/libmaple/dma.o
 .debug_line    0x00000713      0x30a build//Users/marcus/Dropbox/Studienarbeit/Sourcecode/StudienarbeitX/Library/libmaple/libmaple/exti.o
 .debug_line    0x00000a1d      0x196 build//Users/marcus/Dropbox/Studienarbeit/Sourcecode/StudienarbeitX/Library/libmaple/libmaple/flash.o
 .debug_line    0x00000bb3      0x1cf build//Users/marcus/Dropbox/Studienarbeit/Sourcecode/StudienarbeitX/Library/libmaple/libmaple/gpio.o
 .debug_line    0x00000d82      0x12d build//Users/marcus/Dropbox/Studienarbeit/Sourcecode/StudienarbeitX/Library/libmaple/libmaple/iwdg.o
 .debug_line    0x00000eaf      0x1f8 build//Users/marcus/Dropbox/Studienarbeit/Sourcecode/StudienarbeitX/Library/libmaple/libmaple/nvic.o
 .debug_line    0x000010a7      0x1dc build//Users/marcus/Dropbox/Studienarbeit/Sourcecode/StudienarbeitX/Library/libmaple/libmaple/pwr.o
 .debug_line    0x00001283      0x235 build//Users/marcus/Dropbox/Studienarbeit/Sourcecode/StudienarbeitX/Library/libmaple/libmaple/rcc.o
 .debug_line    0x000014b8      0x312 build//Users/marcus/Dropbox/Studienarbeit/Sourcecode/StudienarbeitX/Library/libmaple/libmaple/spi.o
 .debug_line    0x000017ca      0x16f build//Users/marcus/Dropbox/Studienarbeit/Sourcecode/StudienarbeitX/Library/libmaple/libmaple/systick.o
 .debug_line    0x00001939      0x363 build//Users/marcus/Dropbox/Studienarbeit/Sourcecode/StudienarbeitX/Library/libmaple/libmaple/timer.o
 .debug_line    0x00001c9c      0x2a5 build//Users/marcus/Dropbox/Studienarbeit/Sourcecode/StudienarbeitX/Library/libmaple/libmaple/usart.o
 .debug_line    0x00001f41      0x206 build//Users/marcus/Dropbox/Studienarbeit/Sourcecode/StudienarbeitX/Library/libmaple/libmaple/usart_private.o
 .debug_line    0x00002147      0x2d9 build//Users/marcus/Dropbox/Studienarbeit/Sourcecode/StudienarbeitX/Library/libmaple/libmaple/util.o
 .debug_line    0x00002420      0x681 build//Users/marcus/Dropbox/Studienarbeit/Sourcecode/StudienarbeitX/Library/libmaple/libmaple/i2c.o
 .debug_line    0x00002aa1      0x3b3 build//Users/marcus/Dropbox/Studienarbeit/Sourcecode/StudienarbeitX/Library/libmaple/libmaple/usb/stm32f1/usb.o
 .debug_line    0x00002e54      0x1ab build//Users/marcus/Dropbox/Studienarbeit/Sourcecode/StudienarbeitX/Library/libmaple/libmaple/usb/stm32f1/usb_reg_map.o
 .debug_line    0x00002fff      0x611 build//Users/marcus/Dropbox/Studienarbeit/Sourcecode/StudienarbeitX/Library/libmaple/libmaple/usb/stm32f1/usb_cdcacm.o
 .debug_line    0x00003610      0x352 build//Users/marcus/Dropbox/Studienarbeit/Sourcecode/StudienarbeitX/Library/libmaple/libmaple/usb/usb_lib/usb_core.o
 .debug_line    0x00003962      0x107 build//Users/marcus/Dropbox/Studienarbeit/Sourcecode/StudienarbeitX/Library/libmaple/libmaple/usb/usb_lib/usb_init.o
 .debug_line    0x00003a69      0x121 build//Users/marcus/Dropbox/Studienarbeit/Sourcecode/StudienarbeitX/Library/libmaple/libmaple/usb/usb_lib/usb_mem.o
 .debug_line    0x00003b8a      0x515 build//Users/marcus/Dropbox/Studienarbeit/Sourcecode/StudienarbeitX/Library/libmaple/libmaple/usb/usb_lib/usb_regs.o
 .debug_line    0x0000409f      0x294 build//Users/marcus/Dropbox/Studienarbeit/Sourcecode/StudienarbeitX/Library/libmaple/libmaple/stm32f1/adc.o
 .debug_line    0x00004333      0x270 build//Users/marcus/Dropbox/Studienarbeit/Sourcecode/StudienarbeitX/Library/libmaple/libmaple/stm32f1/bkp.o
 .debug_line    0x000045a3      0x539 build//Users/marcus/Dropbox/Studienarbeit/Sourcecode/StudienarbeitX/Library/libmaple/libmaple/stm32f1/dma.o
 .debug_line    0x00004adc      0x240 build//Users/marcus/Dropbox/Studienarbeit/Sourcecode/StudienarbeitX/Library/libmaple/libmaple/stm32f1/exti.o
 .debug_line    0x00004d1c      0x175 build//Users/marcus/Dropbox/Studienarbeit/Sourcecode/StudienarbeitX/Library/libmaple/libmaple/stm32f1/fsmc.o
 .debug_line    0x00004e91      0x22a build//Users/marcus/Dropbox/Studienarbeit/Sourcecode/StudienarbeitX/Library/libmaple/libmaple/stm32f1/gpio.o
 .debug_line    0x000050bb      0x34b build//Users/marcus/Dropbox/Studienarbeit/Sourcecode/StudienarbeitX/Library/libmaple/libmaple/stm32f1/i2c.o
 .debug_line    0x00005406      0x2fa build//Users/marcus/Dropbox/Studienarbeit/Sourcecode/StudienarbeitX/Library/libmaple/libmaple/stm32f1/rcc.o
 .debug_line    0x00005700      0x28c build//Users/marcus/Dropbox/Studienarbeit/Sourcecode/StudienarbeitX/Library/libmaple/libmaple/stm32f1/spi.o
 .debug_line    0x0000598c      0x347 build//Users/marcus/Dropbox/Studienarbeit/Sourcecode/StudienarbeitX/Library/libmaple/libmaple/stm32f1/timer.o
 .debug_line    0x00005cd3      0x348 build//Users/marcus/Dropbox/Studienarbeit/Sourcecode/StudienarbeitX/Library/libmaple/libmaple/stm32f1/usart.o
 .debug_line    0x0000601b       0xdf build//Users/marcus/Dropbox/Studienarbeit/Sourcecode/StudienarbeitX/Library/libmaple/wirish/start_c.o
 .debug_line    0x000060fa      0x4ad build//Users/marcus/Dropbox/Studienarbeit/Sourcecode/StudienarbeitX/Library/libmaple/wirish/syscalls.o
 .debug_line    0x000065a7      0x2e1 build//Users/marcus/Dropbox/Studienarbeit/Sourcecode/StudienarbeitX/Library/libmaple/wirish/stm32f1/util_hooks.o
 .debug_line    0x00006888      0x47d build//Users/marcus/Dropbox/Studienarbeit/Sourcecode/StudienarbeitX/Library/libmaple/wirish/boards.o
 .debug_line    0x00006d05       0x95 build//Users/marcus/Dropbox/Studienarbeit/Sourcecode/StudienarbeitX/Library/libmaple/wirish/cxxabi-compat.o
 .debug_line    0x00006d9a      0x376 build//Users/marcus/Dropbox/Studienarbeit/Sourcecode/StudienarbeitX/Library/libmaple/wirish/ext_interrupts.o
 .debug_line    0x00007110      0x492 build//Users/marcus/Dropbox/Studienarbeit/Sourcecode/StudienarbeitX/Library/libmaple/wirish/HardwareSerial.o
 .debug_line    0x000075a2      0x713 build//Users/marcus/Dropbox/Studienarbeit/Sourcecode/StudienarbeitX/Library/libmaple/wirish/HardwareTimer.o
 .debug_line    0x00007cb5      0x5b1 build//Users/marcus/Dropbox/Studienarbeit/Sourcecode/StudienarbeitX/Library/libmaple/wirish/Print.o
 .debug_line    0x00008266      0x34b build//Users/marcus/Dropbox/Studienarbeit/Sourcecode/StudienarbeitX/Library/libmaple/wirish/pwm.o
 .debug_line    0x000085b1      0x746 build//Users/marcus/Dropbox/Studienarbeit/Sourcecode/StudienarbeitX/Library/libmaple/wirish/usb_serial.o
 .debug_line    0x00008cf7      0x85b build//Users/marcus/Dropbox/Studienarbeit/Sourcecode/StudienarbeitX/Library/libmaple/wirish/HardwareSPI.o
 .debug_line    0x00009552      0x34c build//Users/marcus/Dropbox/Studienarbeit/Sourcecode/StudienarbeitX/Library/libmaple/wirish/wirish_analog.o
 .debug_line    0x0000989e      0x3d7 build//Users/marcus/Dropbox/Studienarbeit/Sourcecode/StudienarbeitX/Library/libmaple/wirish/wirish_digital.o
 .debug_line    0x00009c75      0x311 build//Users/marcus/Dropbox/Studienarbeit/Sourcecode/StudienarbeitX/Library/libmaple/wirish/wirish_math.o
 .debug_line    0x00009f86      0x5ea build//Users/marcus/Dropbox/Studienarbeit/Sourcecode/StudienarbeitX/Library/libmaple/wirish/wirish_shift.o
 .debug_line    0x0000a570      0x379 build//Users/marcus/Dropbox/Studienarbeit/Sourcecode/StudienarbeitX/Library/libmaple/wirish/wirish_time.o
 .debug_line    0x0000a8e9      0x419 build//Users/marcus/Dropbox/Studienarbeit/Sourcecode/StudienarbeitX/Library/libmaple/wirish/stm32f1/boards_setup.o
 .debug_line    0x0000ad02      0x367 build//Users/marcus/Dropbox/Studienarbeit/Sourcecode/StudienarbeitX/Library/libmaple/wirish/stm32f1/wirish_digital.o
 .debug_line    0x0000b069      0x27a build//Users/marcus/Dropbox/Studienarbeit/Sourcecode/StudienarbeitX/Library/libmaple/wirish/stm32f1/wirish_debug.o
 .debug_line    0x0000b2e3      0x3b1 build//Users/marcus/Dropbox/Studienarbeit/Sourcecode/StudienarbeitX/Library/libmaple/wirish/boards/maple/board.o
 .debug_line    0x0000b694      0x64d build//Users/marcus/Dropbox/Studienarbeit/Sourcecode/StudienarbeitX/Library/libmaple/libraries/Servo/Servo.o
 .debug_line    0x0000bce1      0x96a build//Users/marcus/Dropbox/Studienarbeit/Sourcecode/StudienarbeitX/Library/libmaple/libraries/LiquidCrystal/LiquidCrystal.o
 .debug_line    0x0000c64b      0x71f build//Users/marcus/Dropbox/Studienarbeit/Sourcecode/StudienarbeitX/Library/libmaple/libraries/Wire/WireBase.o
 .debug_line    0x0000cd6a      0x6bc build//Users/marcus/Dropbox/Studienarbeit/Sourcecode/StudienarbeitX/Library/libmaple/libraries/Wire/HardWire.o
 .debug_line    0x0000d426      0x79d build//Users/marcus/Dropbox/Studienarbeit/Sourcecode/StudienarbeitX/Library/libmaple/libraries/Wire/Wire.o
 .debug_line    0x0000dbc3      0xb30 build//Users/marcus/Dropbox/Studienarbeit/Sourcecode/StudienarbeitX/Library/TinyWebServer/TinyWebServer.o
 .debug_line    0x0000e6f3      0x815 build//Users/marcus/Dropbox/Studienarbeit/Sourcecode/StudienarbeitX/Library/WiFlySerial/SpiUart.o
 .debug_line    0x0000ef08      0xe57 build//Users/marcus/Dropbox/Studienarbeit/Sourcecode/StudienarbeitX/Library/WiFlySerial/WiFlySerial.o
 .debug_line    0x0000fd5f      0x8e2 build//Users/marcus/Dropbox/Studienarbeit/Sourcecode/StudienarbeitX/Library/WiFlySerial/WFSEthernet.o
 .debug_line    0x00010641      0x7d4 build//Users/marcus/Dropbox/Studienarbeit/Sourcecode/StudienarbeitX/Library/WiFlySerial/WFSEthernetServer.o
 .debug_line    0x00010e15      0x87e build//Users/marcus/Dropbox/Studienarbeit/Sourcecode/StudienarbeitX/Library/WiFlySerial/WFSEthernetClient.o
 .debug_line    0x00011693      0x48e build//Users/marcus/Dropbox/Studienarbeit/Sourcecode/StudienarbeitX/Library/WiFlySerial/WFSIPAddress.o
 .debug_line    0x00011b21      0x83b build//Users/marcus/Dropbox/Studienarbeit/Sourcecode/StudienarbeitX/TWS-HelloWorld.o
 .debug_line    0x0001235c       0x78 build/main.o
 .debug_line    0x000123d4      0x20e /usr/local/bin/../lib/gcc/arm-none-eabi/4.4.1/thumb2/libgcc.a(_arm_addsubdf3.o)
 .debug_line    0x000125e2      0x22e /usr/local/bin/../lib/gcc/arm-none-eabi/4.4.1/thumb2/libgcc.a(_arm_muldivdf3.o)
 .debug_line    0x00012810      0x114 /usr/local/bin/../lib/gcc/arm-none-eabi/4.4.1/thumb2/libgcc.a(_arm_cmpdf2.o)
 .debug_line    0x00012924       0x8c /usr/local/bin/../lib/gcc/arm-none-eabi/4.4.1/thumb2/libgcc.a(_arm_fixdfsi.o)
 .debug_line    0x000129b0      0x14f /usr/local/bin/../lib/gcc/arm-none-eabi/4.4.1/thumb2/libgcc.a(_arm_muldivsf3.o)
 .debug_line    0x00012aff       0x8c /usr/local/bin/../lib/gcc/arm-none-eabi/4.4.1/thumb2/libgcc.a(_arm_fixsfsi.o)
 .debug_line    0x00012b8b       0x77 /usr/local/bin/../lib/gcc/arm-none-eabi/4.4.1/thumb2/libgcc.a(_aeabi_uldivmod.o)
 .debug_line    0x00012c02       0x7b /usr/local/bin/../lib/gcc/arm-none-eabi/4.4.1/thumb2/libgcc.a(_fixdfdi.o)
 .debug_line    0x00012c7d       0x82 /usr/local/bin/../lib/gcc/arm-none-eabi/4.4.1/thumb2/libgcc.a(_fixunsdfdi.o)
 .debug_line    0x00012cff       0x79 /usr/local/bin/../lib/gcc/arm-none-eabi/4.4.1/thumb2/libgcc.a(bpabi.o)
 .debug_line    0x00012d78       0x75 /usr/local/bin/../lib/gcc/arm-none-eabi/4.4.1/thumb2/libgcc.a(_dvmd_tls.o)
 .debug_line    0x00012ded       0x88 /usr/local/bin/../lib/gcc/arm-none-eabi/4.4.1/thumb2/libgcc.a(_arm_fixunsdfsi.o)
 .debug_line    0x00012e75       0xe1 /usr/local/bin/../lib/gcc/arm-none-eabi/4.4.1/thumb2/libgcc.a(_divdi3.o)
 .debug_line    0x00012f56       0xd5 /usr/local/bin/../lib/gcc/arm-none-eabi/4.4.1/thumb2/libgcc.a(_udivdi3.o)
 .debug_line    0x0001302b       0x98 /usr/local/bin/../lib/gcc/arm-none-eabi/4.4.1/thumb2/libgcc.a(_udivsi3.o)
 .debug_line    0x000130c3       0x72 /usr/local/bin/../lib/gcc/arm-none-eabi/4.4.1/thumb2/crtn.o

.debug_frame    0x00000000     0x4c88
 *(.debug_frame)
 .debug_frame   0x00000000       0x68 build//Users/marcus/Dropbox/Studienarbeit/Sourcecode/StudienarbeitX/Library/libmaple/libmaple/adc.o
 .debug_frame   0x00000068       0x6c build//Users/marcus/Dropbox/Studienarbeit/Sourcecode/StudienarbeitX/Library/libmaple/libmaple/dac.o
 .debug_frame   0x000000d4       0x30 build//Users/marcus/Dropbox/Studienarbeit/Sourcecode/StudienarbeitX/Library/libmaple/libmaple/dma.o
 .debug_frame   0x00000104      0x15c build//Users/marcus/Dropbox/Studienarbeit/Sourcecode/StudienarbeitX/Library/libmaple/libmaple/exti.o
 .debug_frame   0x00000260       0x20 build//Users/marcus/Dropbox/Studienarbeit/Sourcecode/StudienarbeitX/Library/libmaple/libmaple/flash.o
 .debug_frame   0x00000280       0x2c build//Users/marcus/Dropbox/Studienarbeit/Sourcecode/StudienarbeitX/Library/libmaple/libmaple/gpio.o
 .debug_frame   0x000002ac       0x30 build//Users/marcus/Dropbox/Studienarbeit/Sourcecode/StudienarbeitX/Library/libmaple/libmaple/iwdg.o
 .debug_frame   0x000002dc       0x5c build//Users/marcus/Dropbox/Studienarbeit/Sourcecode/StudienarbeitX/Library/libmaple/libmaple/nvic.o
 .debug_frame   0x00000338       0x2c build//Users/marcus/Dropbox/Studienarbeit/Sourcecode/StudienarbeitX/Library/libmaple/libmaple/pwr.o
 .debug_frame   0x00000364       0xd0 build//Users/marcus/Dropbox/Studienarbeit/Sourcecode/StudienarbeitX/Library/libmaple/libmaple/rcc.o
 .debug_frame   0x00000434       0xf8 build//Users/marcus/Dropbox/Studienarbeit/Sourcecode/StudienarbeitX/Library/libmaple/libmaple/spi.o
 .debug_frame   0x0000052c       0x6c build//Users/marcus/Dropbox/Studienarbeit/Sourcecode/StudienarbeitX/Library/libmaple/libmaple/systick.o
 .debug_frame   0x00000598      0x14c build//Users/marcus/Dropbox/Studienarbeit/Sourcecode/StudienarbeitX/Library/libmaple/libmaple/timer.o
 .debug_frame   0x000006e4       0xb4 build//Users/marcus/Dropbox/Studienarbeit/Sourcecode/StudienarbeitX/Library/libmaple/libmaple/usart.o
 .debug_frame   0x00000798       0x2c build//Users/marcus/Dropbox/Studienarbeit/Sourcecode/StudienarbeitX/Library/libmaple/libmaple/usart_private.o
 .debug_frame   0x000007c4       0xec build//Users/marcus/Dropbox/Studienarbeit/Sourcecode/StudienarbeitX/Library/libmaple/libmaple/util.o
 .debug_frame   0x000008b0      0x1a4 build//Users/marcus/Dropbox/Studienarbeit/Sourcecode/StudienarbeitX/Library/libmaple/libmaple/i2c.o
 .debug_frame   0x00000a54       0xbc build//Users/marcus/Dropbox/Studienarbeit/Sourcecode/StudienarbeitX/Library/libmaple/libmaple/usb/stm32f1/usb.o
 .debug_frame   0x00000b10       0x84 build//Users/marcus/Dropbox/Studienarbeit/Sourcecode/StudienarbeitX/Library/libmaple/libmaple/usb/stm32f1/usb_reg_map.o
 .debug_frame   0x00000b94      0x280 build//Users/marcus/Dropbox/Studienarbeit/Sourcecode/StudienarbeitX/Library/libmaple/libmaple/usb/stm32f1/usb_cdcacm.o
 .debug_frame   0x00000e14      0x1dc build//Users/marcus/Dropbox/Studienarbeit/Sourcecode/StudienarbeitX/Library/libmaple/libmaple/usb/usb_lib/usb_core.o
 .debug_frame   0x00000ff0       0x2c build//Users/marcus/Dropbox/Studienarbeit/Sourcecode/StudienarbeitX/Library/libmaple/libmaple/usb/usb_lib/usb_init.o
 .debug_frame   0x0000101c       0x3c build//Users/marcus/Dropbox/Studienarbeit/Sourcecode/StudienarbeitX/Library/libmaple/libmaple/usb/usb_lib/usb_mem.o
 .debug_frame   0x00001058      0x3dc build//Users/marcus/Dropbox/Studienarbeit/Sourcecode/StudienarbeitX/Library/libmaple/libmaple/usb/usb_lib/usb_regs.o
 .debug_frame   0x00001434       0x9c build//Users/marcus/Dropbox/Studienarbeit/Sourcecode/StudienarbeitX/Library/libmaple/libmaple/stm32f1/adc.o
 .debug_frame   0x000014d0       0xbc build//Users/marcus/Dropbox/Studienarbeit/Sourcecode/StudienarbeitX/Library/libmaple/libmaple/stm32f1/bkp.o
 .debug_frame   0x0000158c      0x2d0 build//Users/marcus/Dropbox/Studienarbeit/Sourcecode/StudienarbeitX/Library/libmaple/libmaple/stm32f1/dma.o
 .debug_frame   0x0000185c       0x20 build//Users/marcus/Dropbox/Studienarbeit/Sourcecode/StudienarbeitX/Library/libmaple/libmaple/stm32f1/exti.o
 .debug_frame   0x0000187c       0x78 build//Users/marcus/Dropbox/Studienarbeit/Sourcecode/StudienarbeitX/Library/libmaple/libmaple/stm32f1/gpio.o
 .debug_frame   0x000018f4       0xd4 build//Users/marcus/Dropbox/Studienarbeit/Sourcecode/StudienarbeitX/Library/libmaple/libmaple/stm32f1/i2c.o
 .debug_frame   0x000019c8       0xb8 build//Users/marcus/Dropbox/Studienarbeit/Sourcecode/StudienarbeitX/Library/libmaple/libmaple/stm32f1/rcc.o
 .debug_frame   0x00001a80       0x54 build//Users/marcus/Dropbox/Studienarbeit/Sourcecode/StudienarbeitX/Library/libmaple/libmaple/stm32f1/spi.o
 .debug_frame   0x00001ad4      0x110 build//Users/marcus/Dropbox/Studienarbeit/Sourcecode/StudienarbeitX/Library/libmaple/libmaple/stm32f1/timer.o
 .debug_frame   0x00001be4       0xac build//Users/marcus/Dropbox/Studienarbeit/Sourcecode/StudienarbeitX/Library/libmaple/libmaple/stm32f1/usart.o
 .debug_frame   0x00001c90       0x2c build//Users/marcus/Dropbox/Studienarbeit/Sourcecode/StudienarbeitX/Library/libmaple/wirish/start_c.o
 .debug_frame   0x00001cbc      0x138 build//Users/marcus/Dropbox/Studienarbeit/Sourcecode/StudienarbeitX/Library/libmaple/wirish/syscalls.o
 .debug_frame   0x00001df4       0x68 build//Users/marcus/Dropbox/Studienarbeit/Sourcecode/StudienarbeitX/Library/libmaple/wirish/stm32f1/util_hooks.o
 .debug_frame   0x00001e5c       0xa4 build//Users/marcus/Dropbox/Studienarbeit/Sourcecode/StudienarbeitX/Library/libmaple/wirish/boards.o
 .debug_frame   0x00001f00       0x20 build//Users/marcus/Dropbox/Studienarbeit/Sourcecode/StudienarbeitX/Library/libmaple/wirish/cxxabi-compat.o
 .debug_frame   0x00001f20       0x40 build//Users/marcus/Dropbox/Studienarbeit/Sourcecode/StudienarbeitX/Library/libmaple/wirish/ext_interrupts.o
 .debug_frame   0x00001f60      0x118 build//Users/marcus/Dropbox/Studienarbeit/Sourcecode/StudienarbeitX/Library/libmaple/wirish/HardwareSerial.o
 .debug_frame   0x00002078      0x1d0 build//Users/marcus/Dropbox/Studienarbeit/Sourcecode/StudienarbeitX/Library/libmaple/wirish/HardwareTimer.o
 .debug_frame   0x00002248      0x330 build//Users/marcus/Dropbox/Studienarbeit/Sourcecode/StudienarbeitX/Library/libmaple/wirish/Print.o
 .debug_frame   0x00002578       0x30 build//Users/marcus/Dropbox/Studienarbeit/Sourcecode/StudienarbeitX/Library/libmaple/wirish/pwm.o
 .debug_frame   0x000025a8      0x190 build//Users/marcus/Dropbox/Studienarbeit/Sourcecode/StudienarbeitX/Library/libmaple/wirish/usb_serial.o
 .debug_frame   0x00002738      0x2d4 build//Users/marcus/Dropbox/Studienarbeit/Sourcecode/StudienarbeitX/Library/libmaple/wirish/HardwareSPI.o
 .debug_frame   0x00002a0c       0x20 build//Users/marcus/Dropbox/Studienarbeit/Sourcecode/StudienarbeitX/Library/libmaple/wirish/wirish_analog.o
 .debug_frame   0x00002a2c       0x80 build//Users/marcus/Dropbox/Studienarbeit/Sourcecode/StudienarbeitX/Library/libmaple/wirish/wirish_digital.o
 .debug_frame   0x00002aac       0x58 build//Users/marcus/Dropbox/Studienarbeit/Sourcecode/StudienarbeitX/Library/libmaple/wirish/wirish_math.o
 .debug_frame   0x00002b04       0x38 build//Users/marcus/Dropbox/Studienarbeit/Sourcecode/StudienarbeitX/Library/libmaple/wirish/wirish_shift.o
 .debug_frame   0x00002b3c       0x40 build//Users/marcus/Dropbox/Studienarbeit/Sourcecode/StudienarbeitX/Library/libmaple/wirish/wirish_time.o
 .debug_frame   0x00002b7c       0x6c build//Users/marcus/Dropbox/Studienarbeit/Sourcecode/StudienarbeitX/Library/libmaple/wirish/stm32f1/boards_setup.o
 .debug_frame   0x00002be8       0x30 build//Users/marcus/Dropbox/Studienarbeit/Sourcecode/StudienarbeitX/Library/libmaple/wirish/stm32f1/wirish_digital.o
 .debug_frame   0x00002c18       0x40 build//Users/marcus/Dropbox/Studienarbeit/Sourcecode/StudienarbeitX/Library/libmaple/wirish/stm32f1/wirish_debug.o
 .debug_frame   0x00002c58       0x30 build//Users/marcus/Dropbox/Studienarbeit/Sourcecode/StudienarbeitX/Library/libmaple/wirish/boards/maple/board.o
 .debug_frame   0x00002c88      0x16c build//Users/marcus/Dropbox/Studienarbeit/Sourcecode/StudienarbeitX/Library/libmaple/libraries/Servo/Servo.o
 .debug_frame   0x00002df4      0x3e0 build//Users/marcus/Dropbox/Studienarbeit/Sourcecode/StudienarbeitX/Library/libmaple/libraries/LiquidCrystal/LiquidCrystal.o
 .debug_frame   0x000031d4      0x124 build//Users/marcus/Dropbox/Studienarbeit/Sourcecode/StudienarbeitX/Library/libmaple/libraries/Wire/WireBase.o
 .debug_frame   0x000032f8       0xd4 build//Users/marcus/Dropbox/Studienarbeit/Sourcecode/StudienarbeitX/Library/libmaple/libraries/Wire/HardWire.o
 .debug_frame   0x000033cc      0x1f4 build//Users/marcus/Dropbox/Studienarbeit/Sourcecode/StudienarbeitX/Library/libmaple/libraries/Wire/Wire.o
 .debug_frame   0x000035c0      0x418 build//Users/marcus/Dropbox/Studienarbeit/Sourcecode/StudienarbeitX/Library/TinyWebServer/TinyWebServer.o
 .debug_frame   0x000039d8      0x1f8 build//Users/marcus/Dropbox/Studienarbeit/Sourcecode/StudienarbeitX/Library/WiFlySerial/SpiUart.o
 .debug_frame   0x00003bd0      0x898 build//Users/marcus/Dropbox/Studienarbeit/Sourcecode/StudienarbeitX/Library/WiFlySerial/WiFlySerial.o
 .debug_frame   0x00004468      0x22c build//Users/marcus/Dropbox/Studienarbeit/Sourcecode/StudienarbeitX/Library/WiFlySerial/WFSEthernet.o
 .debug_frame   0x00004694       0xcc build//Users/marcus/Dropbox/Studienarbeit/Sourcecode/StudienarbeitX/Library/WiFlySerial/WFSEthernetServer.o
 .debug_frame   0x00004760      0x1c0 build//Users/marcus/Dropbox/Studienarbeit/Sourcecode/StudienarbeitX/Library/WiFlySerial/WFSEthernetClient.o
 .debug_frame   0x00004920      0x150 build//Users/marcus/Dropbox/Studienarbeit/Sourcecode/StudienarbeitX/Library/WiFlySerial/WFSIPAddress.o
 .debug_frame   0x00004a70       0xa8 build//Users/marcus/Dropbox/Studienarbeit/Sourcecode/StudienarbeitX/TWS-HelloWorld.o
 .debug_frame   0x00004b18       0x38 /usr/local/bin/../lib/gcc/arm-none-eabi/4.4.1/thumb2/libgcc.a(_fixdfdi.o)
 .debug_frame   0x00004b50       0x30 /usr/local/bin/../lib/gcc/arm-none-eabi/4.4.1/thumb2/libgcc.a(_fixunsdfdi.o)
 .debug_frame   0x00004b80       0x60 /usr/local/bin/../lib/gcc/arm-none-eabi/4.4.1/thumb2/libgcc.a(bpabi.o)
 .debug_frame   0x00004be0       0x44 /usr/local/bin/../lib/gcc/arm-none-eabi/4.4.1/thumb2/libgcc.a(_divdi3.o)
 .debug_frame   0x00004c24       0x44 /usr/local/bin/../lib/gcc/arm-none-eabi/4.4.1/thumb2/libgcc.a(_udivdi3.o)
 .debug_frame   0x00004c68       0x20 /usr/local/bin/../lib/gcc/arm-none-eabi/4.4.1/thumb2/libgcc.a(_udivsi3.o)

.debug_str      0x00000000     0xb5bf
 *(.debug_str)
 .debug_str     0x00000000      0x532 build//Users/marcus/Dropbox/Studienarbeit/Sourcecode/StudienarbeitX/Library/libmaple/libmaple/adc.o
                                0x56e (size before relaxing)
 .debug_str     0x00000532      0x20e build//Users/marcus/Dropbox/Studienarbeit/Sourcecode/StudienarbeitX/Library/libmaple/libmaple/dac.o
                                0x496 (size before relaxing)
 .debug_str     0x00000740      0x6cc build//Users/marcus/Dropbox/Studienarbeit/Sourcecode/StudienarbeitX/Library/libmaple/libmaple/dma.o
                                0x936 (size before relaxing)
 .debug_str     0x00000e0c      0x291 build//Users/marcus/Dropbox/Studienarbeit/Sourcecode/StudienarbeitX/Library/libmaple/libmaple/exti.o
                                0x81b (size before relaxing)
 .debug_str     0x0000109d       0x99 build//Users/marcus/Dropbox/Studienarbeit/Sourcecode/StudienarbeitX/Library/libmaple/libmaple/flash.o
                                0x11a (size before relaxing)
 .debug_str     0x00001136       0x69 build//Users/marcus/Dropbox/Studienarbeit/Sourcecode/StudienarbeitX/Library/libmaple/libmaple/gpio.o
                                0x341 (size before relaxing)
 .debug_str     0x0000119f       0xe3 build//Users/marcus/Dropbox/Studienarbeit/Sourcecode/StudienarbeitX/Library/libmaple/libmaple/iwdg.o
                                0x177 (size before relaxing)
 .debug_str     0x00001282       0xf4 build//Users/marcus/Dropbox/Studienarbeit/Sourcecode/StudienarbeitX/Library/libmaple/libmaple/nvic.o
                                0x61a (size before relaxing)
 .debug_str     0x00001376       0x67 build//Users/marcus/Dropbox/Studienarbeit/Sourcecode/StudienarbeitX/Library/libmaple/libmaple/pwr.o
                                0x2b1 (size before relaxing)
 .debug_str     0x000013dd      0x1fd build//Users/marcus/Dropbox/Studienarbeit/Sourcecode/StudienarbeitX/Library/libmaple/libmaple/rcc.o
                                0x46f (size before relaxing)
 .debug_str     0x000015da      0x3a2 build//Users/marcus/Dropbox/Studienarbeit/Sourcecode/StudienarbeitX/Library/libmaple/libmaple/spi.o
                                0xa81 (size before relaxing)
 .debug_str     0x0000197c       0xfb build//Users/marcus/Dropbox/Studienarbeit/Sourcecode/StudienarbeitX/Library/libmaple/libmaple/systick.o
                                0x180 (size before relaxing)
 .debug_str     0x00001a77      0x432 build//Users/marcus/Dropbox/Studienarbeit/Sourcecode/StudienarbeitX/Library/libmaple/libmaple/timer.o
                                0xbfe (size before relaxing)
 .debug_str     0x00001ea9      0x153 build//Users/marcus/Dropbox/Studienarbeit/Sourcecode/StudienarbeitX/Library/libmaple/libmaple/usart.o
                                0x880 (size before relaxing)
 .debug_str     0x00001ffc       0x7a build//Users/marcus/Dropbox/Studienarbeit/Sourcecode/StudienarbeitX/Library/libmaple/libmaple/usart_private.o
                                0x789 (size before relaxing)
 .debug_str     0x00002076       0xe3 build//Users/marcus/Dropbox/Studienarbeit/Sourcecode/StudienarbeitX/Library/libmaple/libmaple/util.o
                                0x8fa (size before relaxing)
 .debug_str     0x00002159      0x4ff build//Users/marcus/Dropbox/Studienarbeit/Sourcecode/StudienarbeitX/Library/libmaple/libmaple/i2c.o
                                0xd0a (size before relaxing)
 .debug_str     0x00002658      0x5d3 build//Users/marcus/Dropbox/Studienarbeit/Sourcecode/StudienarbeitX/Library/libmaple/libmaple/usb/stm32f1/usb.o
                                0x940 (size before relaxing)
 .debug_str     0x00002c2b       0xea build//Users/marcus/Dropbox/Studienarbeit/Sourcecode/StudienarbeitX/Library/libmaple/libmaple/usb/stm32f1/usb_reg_map.o
                                0x1ac (size before relaxing)
 .debug_str     0x00002d15      0x856 build//Users/marcus/Dropbox/Studienarbeit/Sourcecode/StudienarbeitX/Library/libmaple/libmaple/usb/stm32f1/usb_cdcacm.o
                               0x15d9 (size before relaxing)
 .debug_str     0x0000356b      0x426 build//Users/marcus/Dropbox/Studienarbeit/Sourcecode/StudienarbeitX/Library/libmaple/libmaple/usb/usb_lib/usb_core.o
                                0x983 (size before relaxing)
 .debug_str     0x00003991       0x9a build//Users/marcus/Dropbox/Studienarbeit/Sourcecode/StudienarbeitX/Library/libmaple/libmaple/usb/usb_lib/usb_init.o
                                0x46e (size before relaxing)
 .debug_str     0x00003a2b       0xc6 build//Users/marcus/Dropbox/Studienarbeit/Sourcecode/StudienarbeitX/Library/libmaple/libmaple/usb/usb_lib/usb_mem.o
                                0x124 (size before relaxing)
 .debug_str     0x00003af1      0x439 build//Users/marcus/Dropbox/Studienarbeit/Sourcecode/StudienarbeitX/Library/libmaple/libmaple/usb/usb_lib/usb_regs.o
                                0x4ac (size before relaxing)
 .debug_str     0x00003f2a      0x1c1 build//Users/marcus/Dropbox/Studienarbeit/Sourcecode/StudienarbeitX/Library/libmaple/libmaple/stm32f1/adc.o
                                0x71c (size before relaxing)
 .debug_str     0x000040eb       0xe0 build//Users/marcus/Dropbox/Studienarbeit/Sourcecode/StudienarbeitX/Library/libmaple/libmaple/stm32f1/bkp.o
                                0x377 (size before relaxing)
 .debug_str     0x000041cb      0x98c build//Users/marcus/Dropbox/Studienarbeit/Sourcecode/StudienarbeitX/Library/libmaple/libmaple/stm32f1/dma.o
                               0x1295 (size before relaxing)
 .debug_str     0x00004b57       0xb0 build//Users/marcus/Dropbox/Studienarbeit/Sourcecode/StudienarbeitX/Library/libmaple/libmaple/stm32f1/exti.o
                                0x1f1 (size before relaxing)
 .debug_str     0x00004c07       0x67 build//Users/marcus/Dropbox/Studienarbeit/Sourcecode/StudienarbeitX/Library/libmaple/libmaple/stm32f1/fsmc.o
                                 0x73 (size before relaxing)
 .debug_str     0x00004c6e       0xba build//Users/marcus/Dropbox/Studienarbeit/Sourcecode/StudienarbeitX/Library/libmaple/libmaple/stm32f1/gpio.o
                                0x67a (size before relaxing)
 .debug_str     0x00004d28       0xf9 build//Users/marcus/Dropbox/Studienarbeit/Sourcecode/StudienarbeitX/Library/libmaple/libmaple/stm32f1/i2c.o
                                0xbba (size before relaxing)
 .debug_str     0x00004e21      0x25b build//Users/marcus/Dropbox/Studienarbeit/Sourcecode/StudienarbeitX/Library/libmaple/libmaple/stm32f1/rcc.o
                                0x6a3 (size before relaxing)
 .debug_str     0x0000507c       0xca build//Users/marcus/Dropbox/Studienarbeit/Sourcecode/StudienarbeitX/Library/libmaple/libmaple/stm32f1/spi.o
                                0x8af (size before relaxing)
 .debug_str     0x00005146      0x144 build//Users/marcus/Dropbox/Studienarbeit/Sourcecode/StudienarbeitX/Library/libmaple/libmaple/stm32f1/timer.o
                                0x583 (size before relaxing)
 .debug_str     0x0000528a      0x15a build//Users/marcus/Dropbox/Studienarbeit/Sourcecode/StudienarbeitX/Library/libmaple/libmaple/stm32f1/usart.o
                                0x985 (size before relaxing)
 .debug_str     0x000053e4       0xab build//Users/marcus/Dropbox/Studienarbeit/Sourcecode/StudienarbeitX/Library/libmaple/wirish/start_c.o
                                 0xd7 (size before relaxing)
 .debug_str     0x0000548f      0x1a9 build//Users/marcus/Dropbox/Studienarbeit/Sourcecode/StudienarbeitX/Library/libmaple/wirish/syscalls.o
                                0x289 (size before relaxing)
 .debug_str     0x00005638       0xe3 build//Users/marcus/Dropbox/Studienarbeit/Sourcecode/StudienarbeitX/Library/libmaple/wirish/stm32f1/util_hooks.o
                                0x9dd (size before relaxing)
 .debug_str     0x0000571b      0x292 build//Users/marcus/Dropbox/Studienarbeit/Sourcecode/StudienarbeitX/Library/libmaple/wirish/boards.o
                                0x9db (size before relaxing)
 .debug_str     0x000059ad       0x7b build//Users/marcus/Dropbox/Studienarbeit/Sourcecode/StudienarbeitX/Library/libmaple/wirish/cxxabi-compat.o
                                 0x89 (size before relaxing)
 .debug_str     0x00005a28      0x14d build//Users/marcus/Dropbox/Studienarbeit/Sourcecode/StudienarbeitX/Library/libmaple/wirish/ext_interrupts.o
                                0x66e (size before relaxing)
 .debug_str     0x00005b75      0x244 build//Users/marcus/Dropbox/Studienarbeit/Sourcecode/StudienarbeitX/Library/libmaple/wirish/HardwareSerial.o
                                0xc3d (size before relaxing)
 .debug_str     0x00005db9      0x96a build//Users/marcus/Dropbox/Studienarbeit/Sourcecode/StudienarbeitX/Library/libmaple/wirish/HardwareTimer.o
                                0xe75 (size before relaxing)
 .debug_str     0x00006723      0x2c9 build//Users/marcus/Dropbox/Studienarbeit/Sourcecode/StudienarbeitX/Library/libmaple/wirish/Print.o
                                0x3db (size before relaxing)
 .debug_str     0x000069ec       0x80 build//Users/marcus/Dropbox/Studienarbeit/Sourcecode/StudienarbeitX/Library/libmaple/wirish/pwm.o
                                0x54d (size before relaxing)
 .debug_str     0x00006a6c      0x1f6 build//Users/marcus/Dropbox/Studienarbeit/Sourcecode/StudienarbeitX/Library/libmaple/wirish/usb_serial.o
                                0x670 (size before relaxing)
 .debug_str     0x00006c62      0x431 build//Users/marcus/Dropbox/Studienarbeit/Sourcecode/StudienarbeitX/Library/libmaple/wirish/HardwareSPI.o
                               0x1038 (size before relaxing)
 .debug_str     0x00007093       0x83 build//Users/marcus/Dropbox/Studienarbeit/Sourcecode/StudienarbeitX/Library/libmaple/wirish/wirish_analog.o
                                0x525 (size before relaxing)
 .debug_str     0x00007116      0x12c build//Users/marcus/Dropbox/Studienarbeit/Sourcecode/StudienarbeitX/Library/libmaple/wirish/wirish_digital.o
                                0x623 (size before relaxing)
 .debug_str     0x00007242       0xb9 build//Users/marcus/Dropbox/Studienarbeit/Sourcecode/StudienarbeitX/Library/libmaple/wirish/wirish_math.o
                                0x169 (size before relaxing)
 .debug_str     0x000072fb       0x91 build//Users/marcus/Dropbox/Studienarbeit/Sourcecode/StudienarbeitX/Library/libmaple/wirish/wirish_shift.o
                                0x173 (size before relaxing)
 .debug_str     0x0000738c       0x99 build//Users/marcus/Dropbox/Studienarbeit/Sourcecode/StudienarbeitX/Library/libmaple/wirish/wirish_time.o
                                0x14e (size before relaxing)
 .debug_str     0x00007425      0x359 build//Users/marcus/Dropbox/Studienarbeit/Sourcecode/StudienarbeitX/Library/libmaple/wirish/stm32f1/boards_setup.o
                                0x6fa (size before relaxing)
 .debug_str     0x0000777e       0xe9 build//Users/marcus/Dropbox/Studienarbeit/Sourcecode/StudienarbeitX/Library/libmaple/wirish/stm32f1/wirish_digital.o
                                0x683 (size before relaxing)
 .debug_str     0x00007867      0x13c build//Users/marcus/Dropbox/Studienarbeit/Sourcecode/StudienarbeitX/Library/libmaple/wirish/stm32f1/wirish_debug.o
                                0x1fe (size before relaxing)
 .debug_str     0x000079a3       0x9a build//Users/marcus/Dropbox/Studienarbeit/Sourcecode/StudienarbeitX/Library/libmaple/wirish/boards/maple/board.o
                                0x5c0 (size before relaxing)
 .debug_str     0x00007a3d      0x1f2 build//Users/marcus/Dropbox/Studienarbeit/Sourcecode/StudienarbeitX/Library/libmaple/libraries/Servo/Servo.o
                                0x844 (size before relaxing)
 .debug_str     0x00007c2f      0x4fa build//Users/marcus/Dropbox/Studienarbeit/Sourcecode/StudienarbeitX/Library/libmaple/libraries/LiquidCrystal/LiquidCrystal.o
                                0x68f (size before relaxing)
 .debug_str     0x00008129      0x29d build//Users/marcus/Dropbox/Studienarbeit/Sourcecode/StudienarbeitX/Library/libmaple/libraries/Wire/WireBase.o
                                0xb5b (size before relaxing)
 .debug_str     0x000083c6       0xbd build//Users/marcus/Dropbox/Studienarbeit/Sourcecode/StudienarbeitX/Library/libmaple/libraries/Wire/HardWire.o
                                0x966 (size before relaxing)
 .debug_str     0x00008483      0x1fa build//Users/marcus/Dropbox/Studienarbeit/Sourcecode/StudienarbeitX/Library/libmaple/libraries/Wire/Wire.o
                                0xb31 (size before relaxing)
 .debug_str     0x0000867d      0x88e build//Users/marcus/Dropbox/Studienarbeit/Sourcecode/StudienarbeitX/Library/TinyWebServer/TinyWebServer.o
                                0xadc (size before relaxing)
 .debug_str     0x00008f0b      0x380 build//Users/marcus/Dropbox/Studienarbeit/Sourcecode/StudienarbeitX/Library/WiFlySerial/SpiUart.o
                                0xe80 (size before relaxing)
 .debug_str     0x0000928b     0x166f build//Users/marcus/Dropbox/Studienarbeit/Sourcecode/StudienarbeitX/Library/WiFlySerial/WiFlySerial.o
                               0x1867 (size before relaxing)
 .debug_str     0x0000a8fa      0x4e5 build//Users/marcus/Dropbox/Studienarbeit/Sourcecode/StudienarbeitX/Library/WiFlySerial/WFSEthernet.o
                                0x6ff (size before relaxing)
 .debug_str     0x0000addf      0x168 build//Users/marcus/Dropbox/Studienarbeit/Sourcecode/StudienarbeitX/Library/WiFlySerial/WFSEthernetServer.o
                                0x307 (size before relaxing)
 .debug_str     0x0000af47      0x2eb build//Users/marcus/Dropbox/Studienarbeit/Sourcecode/StudienarbeitX/Library/WiFlySerial/WFSEthernetClient.o
                                0x5d1 (size before relaxing)
 .debug_str     0x0000b232       0x95 build//Users/marcus/Dropbox/Studienarbeit/Sourcecode/StudienarbeitX/Library/WiFlySerial/WFSIPAddress.o
                                0x26c (size before relaxing)
 .debug_str     0x0000b2c7       0xe7 build//Users/marcus/Dropbox/Studienarbeit/Sourcecode/StudienarbeitX/TWS-HelloWorld.o
                                0xc92 (size before relaxing)
 .debug_str     0x0000b3ae       0x58 build/main.o
                                 0x66 (size before relaxing)
 .debug_str     0x0000b406       0xb6 /usr/local/bin/../lib/gcc/arm-none-eabi/4.4.1/thumb2/libgcc.a(_fixdfdi.o)
                                0x156 (size before relaxing)
 .debug_str     0x0000b4bc       0x1d /usr/local/bin/../lib/gcc/arm-none-eabi/4.4.1/thumb2/libgcc.a(_fixunsdfdi.o)
                                0x162 (size before relaxing)
 .debug_str     0x0000b4d9       0x6a /usr/local/bin/../lib/gcc/arm-none-eabi/4.4.1/thumb2/libgcc.a(bpabi.o)
                                0x100 (size before relaxing)
 .debug_str     0x0000b543       0x72 /usr/local/bin/../lib/gcc/arm-none-eabi/4.4.1/thumb2/libgcc.a(_divdi3.o)
                                0x1ce (size before relaxing)
 .debug_str     0x0000b5b5        0xa /usr/local/bin/../lib/gcc/arm-none-eabi/4.4.1/thumb2/libgcc.a(_udivdi3.o)
                                0x1cf (size before relaxing)

.debug_loc      0x00000000     0xd2ac
 *(.debug_loc)
 .debug_loc     0x00000000       0x82 build//Users/marcus/Dropbox/Studienarbeit/Sourcecode/StudienarbeitX/Library/libmaple/libmaple/adc.o
 .debug_loc     0x00000082       0xea build//Users/marcus/Dropbox/Studienarbeit/Sourcecode/StudienarbeitX/Library/libmaple/libmaple/dac.o
 .debug_loc     0x0000016c       0x26 build//Users/marcus/Dropbox/Studienarbeit/Sourcecode/StudienarbeitX/Library/libmaple/libmaple/dma.o
 .debug_loc     0x00000192      0x32c build//Users/marcus/Dropbox/Studienarbeit/Sourcecode/StudienarbeitX/Library/libmaple/libmaple/exti.o
 .debug_loc     0x000004be       0x3d build//Users/marcus/Dropbox/Studienarbeit/Sourcecode/StudienarbeitX/Library/libmaple/libmaple/gpio.o
 .debug_loc     0x000004fb       0x26 build//Users/marcus/Dropbox/Studienarbeit/Sourcecode/StudienarbeitX/Library/libmaple/libmaple/iwdg.o
 .debug_loc     0x00000521       0x89 build//Users/marcus/Dropbox/Studienarbeit/Sourcecode/StudienarbeitX/Library/libmaple/libmaple/nvic.o
 .debug_loc     0x000005aa       0x1f build//Users/marcus/Dropbox/Studienarbeit/Sourcecode/StudienarbeitX/Library/libmaple/libmaple/pwr.o
 .debug_loc     0x000005c9      0x140 build//Users/marcus/Dropbox/Studienarbeit/Sourcecode/StudienarbeitX/Library/libmaple/libmaple/rcc.o
 .debug_loc     0x00000709      0x1cc build//Users/marcus/Dropbox/Studienarbeit/Sourcecode/StudienarbeitX/Library/libmaple/libmaple/spi.o
 .debug_loc     0x000008d5       0x32 build//Users/marcus/Dropbox/Studienarbeit/Sourcecode/StudienarbeitX/Library/libmaple/libmaple/systick.o
 .debug_loc     0x00000907      0x47b build//Users/marcus/Dropbox/Studienarbeit/Sourcecode/StudienarbeitX/Library/libmaple/libmaple/timer.o
 .debug_loc     0x00000d82      0x192 build//Users/marcus/Dropbox/Studienarbeit/Sourcecode/StudienarbeitX/Library/libmaple/libmaple/usart.o
 .debug_loc     0x00000f14       0x32 build//Users/marcus/Dropbox/Studienarbeit/Sourcecode/StudienarbeitX/Library/libmaple/libmaple/usart_private.o
 .debug_loc     0x00000f46      0x202 build//Users/marcus/Dropbox/Studienarbeit/Sourcecode/StudienarbeitX/Library/libmaple/libmaple/util.o
 .debug_loc     0x00001148      0x416 build//Users/marcus/Dropbox/Studienarbeit/Sourcecode/StudienarbeitX/Library/libmaple/libmaple/i2c.o
 .debug_loc     0x0000155e      0x17e build//Users/marcus/Dropbox/Studienarbeit/Sourcecode/StudienarbeitX/Library/libmaple/libmaple/usb/stm32f1/usb.o
 .debug_loc     0x000016dc      0x168 build//Users/marcus/Dropbox/Studienarbeit/Sourcecode/StudienarbeitX/Library/libmaple/libmaple/usb/stm32f1/usb_reg_map.o
 .debug_loc     0x00001844      0x484 build//Users/marcus/Dropbox/Studienarbeit/Sourcecode/StudienarbeitX/Library/libmaple/libmaple/usb/stm32f1/usb_cdcacm.o
 .debug_loc     0x00001cc8      0x677 build//Users/marcus/Dropbox/Studienarbeit/Sourcecode/StudienarbeitX/Library/libmaple/libmaple/usb/usb_lib/usb_core.o
 .debug_loc     0x0000233f       0x1f build//Users/marcus/Dropbox/Studienarbeit/Sourcecode/StudienarbeitX/Library/libmaple/libmaple/usb/usb_lib/usb_init.o
 .debug_loc     0x0000235e       0x6b build//Users/marcus/Dropbox/Studienarbeit/Sourcecode/StudienarbeitX/Library/libmaple/libmaple/usb/usb_lib/usb_mem.o
 .debug_loc     0x000023c9      0x5fc build//Users/marcus/Dropbox/Studienarbeit/Sourcecode/StudienarbeitX/Library/libmaple/libmaple/usb/usb_lib/usb_regs.o
 .debug_loc     0x000029c5      0x116 build//Users/marcus/Dropbox/Studienarbeit/Sourcecode/StudienarbeitX/Library/libmaple/libmaple/stm32f1/adc.o
 .debug_loc     0x00002adb       0xfd build//Users/marcus/Dropbox/Studienarbeit/Sourcecode/StudienarbeitX/Library/libmaple/libmaple/stm32f1/bkp.o
 .debug_loc     0x00002bd8      0x8a6 build//Users/marcus/Dropbox/Studienarbeit/Sourcecode/StudienarbeitX/Library/libmaple/libmaple/stm32f1/dma.o
 .debug_loc     0x0000347e       0x3c build//Users/marcus/Dropbox/Studienarbeit/Sourcecode/StudienarbeitX/Library/libmaple/libmaple/stm32f1/exti.o
 .debug_loc     0x000034ba      0x109 build//Users/marcus/Dropbox/Studienarbeit/Sourcecode/StudienarbeitX/Library/libmaple/libmaple/stm32f1/gpio.o
 .debug_loc     0x000035c3       0xdd build//Users/marcus/Dropbox/Studienarbeit/Sourcecode/StudienarbeitX/Library/libmaple/libmaple/stm32f1/i2c.o
 .debug_loc     0x000036a0      0x19e build//Users/marcus/Dropbox/Studienarbeit/Sourcecode/StudienarbeitX/Library/libmaple/libmaple/stm32f1/rcc.o
 .debug_loc     0x0000383e      0x150 build//Users/marcus/Dropbox/Studienarbeit/Sourcecode/StudienarbeitX/Library/libmaple/libmaple/stm32f1/spi.o
 .debug_loc     0x0000398e      0x6b7 build//Users/marcus/Dropbox/Studienarbeit/Sourcecode/StudienarbeitX/Library/libmaple/libmaple/stm32f1/timer.o
 .debug_loc     0x00004045      0x1cb build//Users/marcus/Dropbox/Studienarbeit/Sourcecode/StudienarbeitX/Library/libmaple/libmaple/stm32f1/usart.o
 .debug_loc     0x00004210       0x63 build//Users/marcus/Dropbox/Studienarbeit/Sourcecode/StudienarbeitX/Library/libmaple/wirish/start_c.o
 .debug_loc     0x00004273      0x2a4 build//Users/marcus/Dropbox/Studienarbeit/Sourcecode/StudienarbeitX/Library/libmaple/wirish/syscalls.o
 .debug_loc     0x00004517       0x5c build//Users/marcus/Dropbox/Studienarbeit/Sourcecode/StudienarbeitX/Library/libmaple/wirish/stm32f1/util_hooks.o
 .debug_loc     0x00004573      0x14d build//Users/marcus/Dropbox/Studienarbeit/Sourcecode/StudienarbeitX/Library/libmaple/wirish/boards.o
 .debug_loc     0x000046c0      0x123 build//Users/marcus/Dropbox/Studienarbeit/Sourcecode/StudienarbeitX/Library/libmaple/wirish/ext_interrupts.o
 .debug_loc     0x000047e3      0x2ac build//Users/marcus/Dropbox/Studienarbeit/Sourcecode/StudienarbeitX/Library/libmaple/wirish/HardwareSerial.o
 .debug_loc     0x00004a8f      0x358 build//Users/marcus/Dropbox/Studienarbeit/Sourcecode/StudienarbeitX/Library/libmaple/wirish/HardwareTimer.o
 .debug_loc     0x00004de7      0xacf build//Users/marcus/Dropbox/Studienarbeit/Sourcecode/StudienarbeitX/Library/libmaple/wirish/Print.o
 .debug_loc     0x000058b6       0x6e build//Users/marcus/Dropbox/Studienarbeit/Sourcecode/StudienarbeitX/Library/libmaple/wirish/pwm.o
 .debug_loc     0x00005924      0x383 build//Users/marcus/Dropbox/Studienarbeit/Sourcecode/StudienarbeitX/Library/libmaple/wirish/usb_serial.o
 .debug_loc     0x00005ca7      0x857 build//Users/marcus/Dropbox/Studienarbeit/Sourcecode/StudienarbeitX/Library/libmaple/wirish/HardwareSPI.o
 .debug_loc     0x000064fe       0x26 build//Users/marcus/Dropbox/Studienarbeit/Sourcecode/StudienarbeitX/Library/libmaple/wirish/wirish_analog.o
 .debug_loc     0x00006524      0x144 build//Users/marcus/Dropbox/Studienarbeit/Sourcecode/StudienarbeitX/Library/libmaple/wirish/wirish_digital.o
 .debug_loc     0x00006668       0xb6 build//Users/marcus/Dropbox/Studienarbeit/Sourcecode/StudienarbeitX/Library/libmaple/wirish/wirish_math.o
 .debug_loc     0x0000671e       0xb5 build//Users/marcus/Dropbox/Studienarbeit/Sourcecode/StudienarbeitX/Library/libmaple/wirish/wirish_shift.o
 .debug_loc     0x000067d3       0x63 build//Users/marcus/Dropbox/Studienarbeit/Sourcecode/StudienarbeitX/Library/libmaple/wirish/wirish_time.o
 .debug_loc     0x00006836       0x1f build//Users/marcus/Dropbox/Studienarbeit/Sourcecode/StudienarbeitX/Library/libmaple/wirish/stm32f1/boards_setup.o
 .debug_loc     0x00006855      0x131 build//Users/marcus/Dropbox/Studienarbeit/Sourcecode/StudienarbeitX/Library/libmaple/wirish/stm32f1/wirish_digital.o
 .debug_loc     0x00006986       0x1f build//Users/marcus/Dropbox/Studienarbeit/Sourcecode/StudienarbeitX/Library/libmaple/wirish/boards/maple/board.o
 .debug_loc     0x000069a5      0x3dd build//Users/marcus/Dropbox/Studienarbeit/Sourcecode/StudienarbeitX/Library/libmaple/libraries/Servo/Servo.o
 .debug_loc     0x00006d82     0x110b build//Users/marcus/Dropbox/Studienarbeit/Sourcecode/StudienarbeitX/Library/libmaple/libraries/LiquidCrystal/LiquidCrystal.o
 .debug_loc     0x00007e8d      0x294 build//Users/marcus/Dropbox/Studienarbeit/Sourcecode/StudienarbeitX/Library/libmaple/libraries/Wire/WireBase.o
 .debug_loc     0x00008121      0x1cf build//Users/marcus/Dropbox/Studienarbeit/Sourcecode/StudienarbeitX/Library/libmaple/libraries/Wire/HardWire.o
 .debug_loc     0x000082f0      0x546 build//Users/marcus/Dropbox/Studienarbeit/Sourcecode/StudienarbeitX/Library/libmaple/libraries/Wire/Wire.o
 .debug_loc     0x00008836      0xc1b build//Users/marcus/Dropbox/Studienarbeit/Sourcecode/StudienarbeitX/Library/TinyWebServer/TinyWebServer.o
 .debug_loc     0x00009451      0x4e6 build//Users/marcus/Dropbox/Studienarbeit/Sourcecode/StudienarbeitX/Library/WiFlySerial/SpiUart.o
 .debug_loc     0x00009937     0x19a1 build//Users/marcus/Dropbox/Studienarbeit/Sourcecode/StudienarbeitX/Library/WiFlySerial/WiFlySerial.o
 .debug_loc     0x0000b2d8      0x4e3 build//Users/marcus/Dropbox/Studienarbeit/Sourcecode/StudienarbeitX/Library/WiFlySerial/WFSEthernet.o
 .debug_loc     0x0000b7bb      0x186 build//Users/marcus/Dropbox/Studienarbeit/Sourcecode/StudienarbeitX/Library/WiFlySerial/WFSEthernetServer.o
 .debug_loc     0x0000b941      0x36a build//Users/marcus/Dropbox/Studienarbeit/Sourcecode/StudienarbeitX/Library/WiFlySerial/WFSEthernetClient.o
 .debug_loc     0x0000bcab      0x3c8 build//Users/marcus/Dropbox/Studienarbeit/Sourcecode/StudienarbeitX/Library/WiFlySerial/WFSIPAddress.o
 .debug_loc     0x0000c073       0x90 build//Users/marcus/Dropbox/Studienarbeit/Sourcecode/StudienarbeitX/TWS-HelloWorld.o
 .debug_loc     0x0000c103       0x67 /usr/local/bin/../lib/gcc/arm-none-eabi/4.4.1/thumb2/libgcc.a(_fixdfdi.o)
 .debug_loc     0x0000c16a       0x57 /usr/local/bin/../lib/gcc/arm-none-eabi/4.4.1/thumb2/libgcc.a(_fixunsdfdi.o)
 .debug_loc     0x0000c1c1      0x11e /usr/local/bin/../lib/gcc/arm-none-eabi/4.4.1/thumb2/libgcc.a(bpabi.o)
 .debug_loc     0x0000c2df      0x7bb /usr/local/bin/../lib/gcc/arm-none-eabi/4.4.1/thumb2/libgcc.a(_divdi3.o)
 .debug_loc     0x0000ca9a      0x812 /usr/local/bin/../lib/gcc/arm-none-eabi/4.4.1/thumb2/libgcc.a(_udivdi3.o)

.debug_macinfo  0x00000000   0x229ff1
 *(.debug_macinfo)
 .debug_macinfo
                0x00000000     0x4f8e build//Users/marcus/Dropbox/Studienarbeit/Sourcecode/StudienarbeitX/Library/libmaple/libmaple/adc.o
 .debug_macinfo
                0x00004f8e     0x5ab3 build//Users/marcus/Dropbox/Studienarbeit/Sourcecode/StudienarbeitX/Library/libmaple/libmaple/dac.o
 .debug_macinfo
                0x0000aa41     0x5748 build//Users/marcus/Dropbox/Studienarbeit/Sourcecode/StudienarbeitX/Library/libmaple/libmaple/dma.o
 .debug_macinfo
                0x00010189     0x151a build//Users/marcus/Dropbox/Studienarbeit/Sourcecode/StudienarbeitX/Library/libmaple/libmaple/exti.o
 .debug_macinfo
                0x000116a3     0x1611 build//Users/marcus/Dropbox/Studienarbeit/Sourcecode/StudienarbeitX/Library/libmaple/libmaple/flash.o
 .debug_macinfo
                0x00012cb4     0x547a build//Users/marcus/Dropbox/Studienarbeit/Sourcecode/StudienarbeitX/Library/libmaple/libmaple/gpio.o
 .debug_macinfo
                0x0001812e      0xfe9 build//Users/marcus/Dropbox/Studienarbeit/Sourcecode/StudienarbeitX/Library/libmaple/libmaple/iwdg.o
 .debug_macinfo
                0x00019117     0x1ce4 build//Users/marcus/Dropbox/Studienarbeit/Sourcecode/StudienarbeitX/Library/libmaple/libmaple/nvic.o
 .debug_macinfo
                0x0001adfb     0x42af build//Users/marcus/Dropbox/Studienarbeit/Sourcecode/StudienarbeitX/Library/libmaple/libmaple/pwr.o
 .debug_macinfo
                0x0001f0aa     0x3a34 build//Users/marcus/Dropbox/Studienarbeit/Sourcecode/StudienarbeitX/Library/libmaple/libmaple/rcc.o
 .debug_macinfo
                0x00022ade     0x5015 build//Users/marcus/Dropbox/Studienarbeit/Sourcecode/StudienarbeitX/Library/libmaple/libmaple/spi.o
 .debug_macinfo
                0x00027af3     0x11f5 build//Users/marcus/Dropbox/Studienarbeit/Sourcecode/StudienarbeitX/Library/libmaple/libmaple/systick.o
 .debug_macinfo
                0x00028ce8     0x75c8 build//Users/marcus/Dropbox/Studienarbeit/Sourcecode/StudienarbeitX/Library/libmaple/libmaple/timer.o
 .debug_macinfo
                0x000302b0     0x4f2b build//Users/marcus/Dropbox/Studienarbeit/Sourcecode/StudienarbeitX/Library/libmaple/libmaple/usart.o
 .debug_macinfo
                0x000351db     0x4f4d build//Users/marcus/Dropbox/Studienarbeit/Sourcecode/StudienarbeitX/Library/libmaple/libmaple/usart_private.o
 .debug_macinfo
                0x0003a128     0x6770 build//Users/marcus/Dropbox/Studienarbeit/Sourcecode/StudienarbeitX/Library/libmaple/libmaple/util.o
 .debug_macinfo
                0x00040898     0x8090 build//Users/marcus/Dropbox/Studienarbeit/Sourcecode/StudienarbeitX/Library/libmaple/libmaple/i2c.o
 .debug_macinfo
                0x00048928     0x4e6c build//Users/marcus/Dropbox/Studienarbeit/Sourcecode/StudienarbeitX/Library/libmaple/libmaple/usb/stm32f1/usb.o
 .debug_macinfo
                0x0004d794     0x1d53 build//Users/marcus/Dropbox/Studienarbeit/Sourcecode/StudienarbeitX/Library/libmaple/libmaple/usb/stm32f1/usb_reg_map.o
 .debug_macinfo
                0x0004f4e7     0x6de5 build//Users/marcus/Dropbox/Studienarbeit/Sourcecode/StudienarbeitX/Library/libmaple/libmaple/usb/stm32f1/usb_cdcacm.o
 .debug_macinfo
                0x000562cc     0x2cde build//Users/marcus/Dropbox/Studienarbeit/Sourcecode/StudienarbeitX/Library/libmaple/libmaple/usb/usb_lib/usb_core.o
 .debug_macinfo
                0x00058faa     0x2b2c build//Users/marcus/Dropbox/Studienarbeit/Sourcecode/StudienarbeitX/Library/libmaple/libmaple/usb/usb_lib/usb_init.o
 .debug_macinfo
                0x0005bad6     0x2b2c build//Users/marcus/Dropbox/Studienarbeit/Sourcecode/StudienarbeitX/Library/libmaple/libmaple/usb/usb_lib/usb_mem.o
 .debug_macinfo
                0x0005e602     0x2b2c build//Users/marcus/Dropbox/Studienarbeit/Sourcecode/StudienarbeitX/Library/libmaple/libmaple/usb/usb_lib/usb_regs.o
 .debug_macinfo
                0x0006112e     0x673d build//Users/marcus/Dropbox/Studienarbeit/Sourcecode/StudienarbeitX/Library/libmaple/libmaple/stm32f1/adc.o
 .debug_macinfo
                0x0006786b     0x4610 build//Users/marcus/Dropbox/Studienarbeit/Sourcecode/StudienarbeitX/Library/libmaple/libmaple/stm32f1/bkp.o
 .debug_macinfo
                0x0006be7b     0x57e6 build//Users/marcus/Dropbox/Studienarbeit/Sourcecode/StudienarbeitX/Library/libmaple/libmaple/stm32f1/dma.o
 .debug_macinfo
                0x00071661     0x549b build//Users/marcus/Dropbox/Studienarbeit/Sourcecode/StudienarbeitX/Library/libmaple/libmaple/stm32f1/exti.o
 .debug_macinfo
                0x00076afc     0x1011 build//Users/marcus/Dropbox/Studienarbeit/Sourcecode/StudienarbeitX/Library/libmaple/libmaple/stm32f1/fsmc.o
 .debug_macinfo
                0x00077b0d     0x5494 build//Users/marcus/Dropbox/Studienarbeit/Sourcecode/StudienarbeitX/Library/libmaple/libmaple/stm32f1/gpio.o
 .debug_macinfo
                0x0007cfa1     0x6146 build//Users/marcus/Dropbox/Studienarbeit/Sourcecode/StudienarbeitX/Library/libmaple/libmaple/stm32f1/i2c.o
 .debug_macinfo
                0x000830e7     0x3fd3 build//Users/marcus/Dropbox/Studienarbeit/Sourcecode/StudienarbeitX/Library/libmaple/libmaple/stm32f1/rcc.o
 .debug_macinfo
                0x000870ba     0x67c4 build//Users/marcus/Dropbox/Studienarbeit/Sourcecode/StudienarbeitX/Library/libmaple/libmaple/stm32f1/spi.o
 .debug_macinfo
                0x0008d87e     0x75c8 build//Users/marcus/Dropbox/Studienarbeit/Sourcecode/StudienarbeitX/Library/libmaple/libmaple/stm32f1/timer.o
 .debug_macinfo
                0x00094e46     0x66fc build//Users/marcus/Dropbox/Studienarbeit/Sourcecode/StudienarbeitX/Library/libmaple/libmaple/stm32f1/usart.o
 .debug_macinfo
                0x0009b542     0x1067 build//Users/marcus/Dropbox/Studienarbeit/Sourcecode/StudienarbeitX/Library/libmaple/wirish/start_c.o
 .debug_macinfo
                0x0009c5a9     0x42cc build//Users/marcus/Dropbox/Studienarbeit/Sourcecode/StudienarbeitX/Library/libmaple/wirish/syscalls.o
 .debug_macinfo
                0x000a0875     0xaa62 build//Users/marcus/Dropbox/Studienarbeit/Sourcecode/StudienarbeitX/Library/libmaple/wirish/stm32f1/util_hooks.o
 .debug_macinfo
                0x000ab2d7     0xab74 build//Users/marcus/Dropbox/Studienarbeit/Sourcecode/StudienarbeitX/Library/libmaple/wirish/boards.o
 .debug_macinfo
                0x000b5e4b      0xd8e build//Users/marcus/Dropbox/Studienarbeit/Sourcecode/StudienarbeitX/Library/libmaple/wirish/cxxabi-compat.o
 .debug_macinfo
                0x000b6bd9     0xa14f build//Users/marcus/Dropbox/Studienarbeit/Sourcecode/StudienarbeitX/Library/libmaple/wirish/ext_interrupts.o
 .debug_macinfo
                0x000c0d28     0xb219 build//Users/marcus/Dropbox/Studienarbeit/Sourcecode/StudienarbeitX/Library/libmaple/wirish/HardwareSerial.o
 .debug_macinfo
                0x000cbf41     0x9f6c build//Users/marcus/Dropbox/Studienarbeit/Sourcecode/StudienarbeitX/Library/libmaple/wirish/HardwareTimer.o
 .debug_macinfo
                0x000d5ead     0x3ba3 build//Users/marcus/Dropbox/Studienarbeit/Sourcecode/StudienarbeitX/Library/libmaple/wirish/Print.o
 .debug_macinfo
                0x000d9a50     0xa15b build//Users/marcus/Dropbox/Studienarbeit/Sourcecode/StudienarbeitX/Library/libmaple/wirish/pwm.o
 .debug_macinfo
                0x000e3bab    0x102bd build//Users/marcus/Dropbox/Studienarbeit/Sourcecode/StudienarbeitX/Library/libmaple/wirish/usb_serial.o
 .debug_macinfo
                0x000f3e68    0x100ad build//Users/marcus/Dropbox/Studienarbeit/Sourcecode/StudienarbeitX/Library/libmaple/wirish/HardwareSPI.o
 .debug_macinfo
                0x00103f15     0xa158 build//Users/marcus/Dropbox/Studienarbeit/Sourcecode/StudienarbeitX/Library/libmaple/wirish/wirish_analog.o
 .debug_macinfo
                0x0010e06d     0xa399 build//Users/marcus/Dropbox/Studienarbeit/Sourcecode/StudienarbeitX/Library/libmaple/wirish/wirish_digital.o
 .debug_macinfo
                0x00118406     0x3a27 build//Users/marcus/Dropbox/Studienarbeit/Sourcecode/StudienarbeitX/Library/libmaple/wirish/wirish_math.o
 .debug_macinfo
                0x0011be2d    0x100a9 build//Users/marcus/Dropbox/Studienarbeit/Sourcecode/StudienarbeitX/Library/libmaple/wirish/wirish_shift.o
 .debug_macinfo
                0x0012bed6     0xa355 build//Users/marcus/Dropbox/Studienarbeit/Sourcecode/StudienarbeitX/Library/libmaple/wirish/wirish_time.o
 .debug_macinfo
                0x0013622b     0xa221 build//Users/marcus/Dropbox/Studienarbeit/Sourcecode/StudienarbeitX/Library/libmaple/wirish/stm32f1/boards_setup.o
 .debug_macinfo
                0x0014044c     0xa158 build//Users/marcus/Dropbox/Studienarbeit/Sourcecode/StudienarbeitX/Library/libmaple/wirish/stm32f1/wirish_digital.o
 .debug_macinfo
                0x0014a5a4     0x554f build//Users/marcus/Dropbox/Studienarbeit/Sourcecode/StudienarbeitX/Library/libmaple/wirish/stm32f1/wirish_debug.o
 .debug_macinfo
                0x0014faf3     0x9e3c build//Users/marcus/Dropbox/Studienarbeit/Sourcecode/StudienarbeitX/Library/libmaple/wirish/boards/maple/board.o
 .debug_macinfo
                0x0015992f     0xcdb2 build//Users/marcus/Dropbox/Studienarbeit/Sourcecode/StudienarbeitX/Library/libmaple/libraries/Servo/Servo.o
 .debug_macinfo
                0x001666e1    0x1138c build//Users/marcus/Dropbox/Studienarbeit/Sourcecode/StudienarbeitX/Library/libmaple/libraries/LiquidCrystal/LiquidCrystal.o
 .debug_macinfo
                0x00177a6d    0x1094d build//Users/marcus/Dropbox/Studienarbeit/Sourcecode/StudienarbeitX/Library/libmaple/libraries/Wire/WireBase.o
 .debug_macinfo
                0x001883ba    0x10961 build//Users/marcus/Dropbox/Studienarbeit/Sourcecode/StudienarbeitX/Library/libmaple/libraries/Wire/HardWire.o
 .debug_macinfo
                0x00198d1b    0x109f2 build//Users/marcus/Dropbox/Studienarbeit/Sourcecode/StudienarbeitX/Library/libmaple/libraries/Wire/Wire.o
 .debug_macinfo
                0x001a970d    0x1251d build//Users/marcus/Dropbox/Studienarbeit/Sourcecode/StudienarbeitX/Library/TinyWebServer/TinyWebServer.o
 .debug_macinfo
                0x001bbc2a    0x10e37 build//Users/marcus/Dropbox/Studienarbeit/Sourcecode/StudienarbeitX/Library/WiFlySerial/SpiUart.o
 .debug_macinfo
                0x001cca61    0x12343 build//Users/marcus/Dropbox/Studienarbeit/Sourcecode/StudienarbeitX/Library/WiFlySerial/WiFlySerial.o
 .debug_macinfo
                0x001deda4    0x11c4a build//Users/marcus/Dropbox/Studienarbeit/Sourcecode/StudienarbeitX/Library/WiFlySerial/WFSEthernet.o
 .debug_macinfo
                0x001f09ee    0x11bce build//Users/marcus/Dropbox/Studienarbeit/Sourcecode/StudienarbeitX/Library/WiFlySerial/WFSEthernetServer.o
 .debug_macinfo
                0x002025bc    0x11bce build//Users/marcus/Dropbox/Studienarbeit/Sourcecode/StudienarbeitX/Library/WiFlySerial/WFSEthernetClient.o
 .debug_macinfo
                0x0021418a     0x348c build//Users/marcus/Dropbox/Studienarbeit/Sourcecode/StudienarbeitX/Library/WiFlySerial/WFSIPAddress.o
 .debug_macinfo
                0x00217616    0x11c4d build//Users/marcus/Dropbox/Studienarbeit/Sourcecode/StudienarbeitX/TWS-HelloWorld.o
 .debug_macinfo
                0x00229263      0xd8e build/main.o

.debug_weaknames
 *(.debug_weaknames)

.debug_funcnames
 *(.debug_funcnames)

.debug_typenames
 *(.debug_typenames)

.debug_varnames
 *(.debug_varnames)

.note.gnu.arm.ident
 *(.note.gnu.arm.ident)

.ARM.attributes
                0x00000000       0x25
 *(.ARM.attributes)
 .ARM.attributes
                0x00000000       0x19 /usr/local/bin/../lib/gcc/arm-none-eabi/4.4.1/thumb2/crti.o
 .ARM.attributes
                0x00000019       0x29 /usr/local/bin/../lib/gcc/arm-none-eabi/4.4.1/thumb2/crtbegin.o
 .ARM.attributes
                0x00000042       0x31 build//Users/marcus/Dropbox/Studienarbeit/Sourcecode/StudienarbeitX/Library/libmaple/libmaple/adc.o
 .ARM.attributes
                0x00000073       0x31 build//Users/marcus/Dropbox/Studienarbeit/Sourcecode/StudienarbeitX/Library/libmaple/libmaple/dac.o
 .ARM.attributes
                0x000000a4       0x31 build//Users/marcus/Dropbox/Studienarbeit/Sourcecode/StudienarbeitX/Library/libmaple/libmaple/dma.o
 .ARM.attributes
                0x000000d5       0x31 build//Users/marcus/Dropbox/Studienarbeit/Sourcecode/StudienarbeitX/Library/libmaple/libmaple/exti.o
 .ARM.attributes
                0x00000106       0x31 build//Users/marcus/Dropbox/Studienarbeit/Sourcecode/StudienarbeitX/Library/libmaple/libmaple/flash.o
 .ARM.attributes
                0x00000137       0x31 build//Users/marcus/Dropbox/Studienarbeit/Sourcecode/StudienarbeitX/Library/libmaple/libmaple/gpio.o
 .ARM.attributes
                0x00000168       0x31 build//Users/marcus/Dropbox/Studienarbeit/Sourcecode/StudienarbeitX/Library/libmaple/libmaple/iwdg.o
 .ARM.attributes
                0x00000199       0x31 build//Users/marcus/Dropbox/Studienarbeit/Sourcecode/StudienarbeitX/Library/libmaple/libmaple/nvic.o
 .ARM.attributes
                0x000001ca       0x31 build//Users/marcus/Dropbox/Studienarbeit/Sourcecode/StudienarbeitX/Library/libmaple/libmaple/pwr.o
 .ARM.attributes
                0x000001fb       0x31 build//Users/marcus/Dropbox/Studienarbeit/Sourcecode/StudienarbeitX/Library/libmaple/libmaple/rcc.o
 .ARM.attributes
                0x0000022c       0x31 build//Users/marcus/Dropbox/Studienarbeit/Sourcecode/StudienarbeitX/Library/libmaple/libmaple/spi.o
 .ARM.attributes
                0x0000025d       0x31 build//Users/marcus/Dropbox/Studienarbeit/Sourcecode/StudienarbeitX/Library/libmaple/libmaple/systick.o
 .ARM.attributes
                0x0000028e       0x31 build//Users/marcus/Dropbox/Studienarbeit/Sourcecode/StudienarbeitX/Library/libmaple/libmaple/timer.o
 .ARM.attributes
                0x000002bf       0x31 build//Users/marcus/Dropbox/Studienarbeit/Sourcecode/StudienarbeitX/Library/libmaple/libmaple/usart.o
 .ARM.attributes
                0x000002f0       0x31 build//Users/marcus/Dropbox/Studienarbeit/Sourcecode/StudienarbeitX/Library/libmaple/libmaple/usart_private.o
 .ARM.attributes
                0x00000321       0x31 build//Users/marcus/Dropbox/Studienarbeit/Sourcecode/StudienarbeitX/Library/libmaple/libmaple/util.o
 .ARM.attributes
                0x00000352       0x31 build//Users/marcus/Dropbox/Studienarbeit/Sourcecode/StudienarbeitX/Library/libmaple/libmaple/i2c.o
 .ARM.attributes
                0x00000383       0x1b build//Users/marcus/Dropbox/Studienarbeit/Sourcecode/StudienarbeitX/Library/libmaple/libmaple/exc.o
 .ARM.attributes
                0x0000039e       0x31 build//Users/marcus/Dropbox/Studienarbeit/Sourcecode/StudienarbeitX/Library/libmaple/libmaple/usb/stm32f1/usb.o
 .ARM.attributes
                0x000003cf       0x31 build//Users/marcus/Dropbox/Studienarbeit/Sourcecode/StudienarbeitX/Library/libmaple/libmaple/usb/stm32f1/usb_reg_map.o
 .ARM.attributes
                0x00000400       0x31 build//Users/marcus/Dropbox/Studienarbeit/Sourcecode/StudienarbeitX/Library/libmaple/libmaple/usb/stm32f1/usb_cdcacm.o
 .ARM.attributes
                0x00000431       0x31 build//Users/marcus/Dropbox/Studienarbeit/Sourcecode/StudienarbeitX/Library/libmaple/libmaple/usb/usb_lib/usb_core.o
 .ARM.attributes
                0x00000462       0x31 build//Users/marcus/Dropbox/Studienarbeit/Sourcecode/StudienarbeitX/Library/libmaple/libmaple/usb/usb_lib/usb_init.o
 .ARM.attributes
                0x00000493       0x31 build//Users/marcus/Dropbox/Studienarbeit/Sourcecode/StudienarbeitX/Library/libmaple/libmaple/usb/usb_lib/usb_mem.o
 .ARM.attributes
                0x000004c4       0x31 build//Users/marcus/Dropbox/Studienarbeit/Sourcecode/StudienarbeitX/Library/libmaple/libmaple/usb/usb_lib/usb_regs.o
 .ARM.attributes
                0x000004f5       0x1b build//Users/marcus/Dropbox/Studienarbeit/Sourcecode/StudienarbeitX/Library/libmaple/libmaple/stm32f1/performance/isrs.o
 .ARM.attributes
                0x00000510       0x1b build//Users/marcus/Dropbox/Studienarbeit/Sourcecode/StudienarbeitX/Library/libmaple/libmaple/stm32f1/performance/vector_table.o
 .ARM.attributes
                0x0000052b       0x31 build//Users/marcus/Dropbox/Studienarbeit/Sourcecode/StudienarbeitX/Library/libmaple/libmaple/stm32f1/adc.o
 .ARM.attributes
                0x0000055c       0x31 build//Users/marcus/Dropbox/Studienarbeit/Sourcecode/StudienarbeitX/Library/libmaple/libmaple/stm32f1/bkp.o
 .ARM.attributes
                0x0000058d       0x31 build//Users/marcus/Dropbox/Studienarbeit/Sourcecode/StudienarbeitX/Library/libmaple/libmaple/stm32f1/dma.o
 .ARM.attributes
                0x000005be       0x31 build//Users/marcus/Dropbox/Studienarbeit/Sourcecode/StudienarbeitX/Library/libmaple/libmaple/stm32f1/exti.o
 .ARM.attributes
                0x000005ef       0x31 build//Users/marcus/Dropbox/Studienarbeit/Sourcecode/StudienarbeitX/Library/libmaple/libmaple/stm32f1/fsmc.o
 .ARM.attributes
                0x00000620       0x31 build//Users/marcus/Dropbox/Studienarbeit/Sourcecode/StudienarbeitX/Library/libmaple/libmaple/stm32f1/gpio.o
 .ARM.attributes
                0x00000651       0x31 build//Users/marcus/Dropbox/Studienarbeit/Sourcecode/StudienarbeitX/Library/libmaple/libmaple/stm32f1/i2c.o
 .ARM.attributes
                0x00000682       0x31 build//Users/marcus/Dropbox/Studienarbeit/Sourcecode/StudienarbeitX/Library/libmaple/libmaple/stm32f1/rcc.o
 .ARM.attributes
                0x000006b3       0x31 build//Users/marcus/Dropbox/Studienarbeit/Sourcecode/StudienarbeitX/Library/libmaple/libmaple/stm32f1/spi.o
 .ARM.attributes
                0x000006e4       0x31 build//Users/marcus/Dropbox/Studienarbeit/Sourcecode/StudienarbeitX/Library/libmaple/libmaple/stm32f1/timer.o
 .ARM.attributes
                0x00000715       0x31 build//Users/marcus/Dropbox/Studienarbeit/Sourcecode/StudienarbeitX/Library/libmaple/libmaple/stm32f1/usart.o
 .ARM.attributes
                0x00000746       0x1b build//Users/marcus/Dropbox/Studienarbeit/Sourcecode/StudienarbeitX/Library/libmaple/wirish/start.o
 .ARM.attributes
                0x00000761       0x31 build//Users/marcus/Dropbox/Studienarbeit/Sourcecode/StudienarbeitX/Library/libmaple/wirish/start_c.o
 .ARM.attributes
                0x00000792       0x31 build//Users/marcus/Dropbox/Studienarbeit/Sourcecode/StudienarbeitX/Library/libmaple/wirish/syscalls.o
 .ARM.attributes
                0x000007c3       0x31 build//Users/marcus/Dropbox/Studienarbeit/Sourcecode/StudienarbeitX/Library/libmaple/wirish/stm32f1/util_hooks.o
 .ARM.attributes
                0x000007f4       0x31 build//Users/marcus/Dropbox/Studienarbeit/Sourcecode/StudienarbeitX/Library/libmaple/wirish/boards.o
 .ARM.attributes
                0x00000825       0x31 build//Users/marcus/Dropbox/Studienarbeit/Sourcecode/StudienarbeitX/Library/libmaple/wirish/cxxabi-compat.o
 .ARM.attributes
                0x00000856       0x31 build//Users/marcus/Dropbox/Studienarbeit/Sourcecode/StudienarbeitX/Library/libmaple/wirish/ext_interrupts.o
 .ARM.attributes
                0x00000887       0x31 build//Users/marcus/Dropbox/Studienarbeit/Sourcecode/StudienarbeitX/Library/libmaple/wirish/HardwareSerial.o
 .ARM.attributes
                0x000008b8       0x31 build//Users/marcus/Dropbox/Studienarbeit/Sourcecode/StudienarbeitX/Library/libmaple/wirish/HardwareTimer.o
 .ARM.attributes
                0x000008e9       0x31 build//Users/marcus/Dropbox/Studienarbeit/Sourcecode/StudienarbeitX/Library/libmaple/wirish/Print.o
 .ARM.attributes
                0x0000091a       0x31 build//Users/marcus/Dropbox/Studienarbeit/Sourcecode/StudienarbeitX/Library/libmaple/wirish/pwm.o
 .ARM.attributes
                0x0000094b       0x31 build//Users/marcus/Dropbox/Studienarbeit/Sourcecode/StudienarbeitX/Library/libmaple/wirish/usb_serial.o
 .ARM.attributes
                0x0000097c       0x31 build//Users/marcus/Dropbox/Studienarbeit/Sourcecode/StudienarbeitX/Library/libmaple/wirish/HardwareSPI.o
 .ARM.attributes
                0x000009ad       0x31 build//Users/marcus/Dropbox/Studienarbeit/Sourcecode/StudienarbeitX/Library/libmaple/wirish/wirish_analog.o
 .ARM.attributes
                0x000009de       0x31 build//Users/marcus/Dropbox/Studienarbeit/Sourcecode/StudienarbeitX/Library/libmaple/wirish/wirish_digital.o
 .ARM.attributes
                0x00000a0f       0x31 build//Users/marcus/Dropbox/Studienarbeit/Sourcecode/StudienarbeitX/Library/libmaple/wirish/wirish_math.o
 .ARM.attributes
                0x00000a40       0x31 build//Users/marcus/Dropbox/Studienarbeit/Sourcecode/StudienarbeitX/Library/libmaple/wirish/wirish_shift.o
 .ARM.attributes
                0x00000a71       0x31 build//Users/marcus/Dropbox/Studienarbeit/Sourcecode/StudienarbeitX/Library/libmaple/wirish/wirish_time.o
 .ARM.attributes
                0x00000aa2       0x31 build//Users/marcus/Dropbox/Studienarbeit/Sourcecode/StudienarbeitX/Library/libmaple/wirish/stm32f1/boards_setup.o
 .ARM.attributes
                0x00000ad3       0x31 build//Users/marcus/Dropbox/Studienarbeit/Sourcecode/StudienarbeitX/Library/libmaple/wirish/stm32f1/wirish_digital.o
 .ARM.attributes
                0x00000b04       0x31 build//Users/marcus/Dropbox/Studienarbeit/Sourcecode/StudienarbeitX/Library/libmaple/wirish/stm32f1/wirish_debug.o
 .ARM.attributes
                0x00000b35       0x31 build//Users/marcus/Dropbox/Studienarbeit/Sourcecode/StudienarbeitX/Library/libmaple/wirish/boards/maple/board.o
 .ARM.attributes
                0x00000b66       0x31 build//Users/marcus/Dropbox/Studienarbeit/Sourcecode/StudienarbeitX/Library/libmaple/libraries/Servo/Servo.o
 .ARM.attributes
                0x00000b97       0x31 build//Users/marcus/Dropbox/Studienarbeit/Sourcecode/StudienarbeitX/Library/libmaple/libraries/LiquidCrystal/LiquidCrystal.o
 .ARM.attributes
                0x00000bc8       0x31 build//Users/marcus/Dropbox/Studienarbeit/Sourcecode/StudienarbeitX/Library/libmaple/libraries/Wire/WireBase.o
 .ARM.attributes
                0x00000bf9       0x31 build//Users/marcus/Dropbox/Studienarbeit/Sourcecode/StudienarbeitX/Library/libmaple/libraries/Wire/HardWire.o
 .ARM.attributes
                0x00000c2a       0x31 build//Users/marcus/Dropbox/Studienarbeit/Sourcecode/StudienarbeitX/Library/libmaple/libraries/Wire/Wire.o
 .ARM.attributes
                0x00000c5b       0x31 build//Users/marcus/Dropbox/Studienarbeit/Sourcecode/StudienarbeitX/Library/TinyWebServer/TinyWebServer.o
 .ARM.attributes
                0x00000c8c       0x31 build//Users/marcus/Dropbox/Studienarbeit/Sourcecode/StudienarbeitX/Library/WiFlySerial/SpiUart.o
 .ARM.attributes
                0x00000cbd       0x31 build//Users/marcus/Dropbox/Studienarbeit/Sourcecode/StudienarbeitX/Library/WiFlySerial/WiFlySerial.o
 .ARM.attributes
                0x00000cee       0x31 build//Users/marcus/Dropbox/Studienarbeit/Sourcecode/StudienarbeitX/Library/WiFlySerial/WFSEthernet.o
 .ARM.attributes
                0x00000d1f       0x31 build//Users/marcus/Dropbox/Studienarbeit/Sourcecode/StudienarbeitX/Library/WiFlySerial/WFSEthernetServer.o
 .ARM.attributes
                0x00000d50       0x31 build//Users/marcus/Dropbox/Studienarbeit/Sourcecode/StudienarbeitX/Library/WiFlySerial/WFSEthernetClient.o
 .ARM.attributes
                0x00000d81       0x31 build//Users/marcus/Dropbox/Studienarbeit/Sourcecode/StudienarbeitX/Library/WiFlySerial/WFSIPAddress.o
 .ARM.attributes
                0x00000db2       0x31 build//Users/marcus/Dropbox/Studienarbeit/Sourcecode/StudienarbeitX/TWS-HelloWorld.o
 .ARM.attributes
                0x00000de3       0x31 build/main.o
 .ARM.attributes
                0x00000e14       0x1b /usr/local/bin/../lib/gcc/arm-none-eabi/4.4.1/thumb2/libgcc.a(_arm_addsubdf3.o)
 .ARM.attributes
                0x00000e2f       0x1b /usr/local/bin/../lib/gcc/arm-none-eabi/4.4.1/thumb2/libgcc.a(_arm_muldivdf3.o)
 .ARM.attributes
                0x00000e4a       0x1b /usr/local/bin/../lib/gcc/arm-none-eabi/4.4.1/thumb2/libgcc.a(_arm_cmpdf2.o)
 .ARM.attributes
                0x00000e65       0x1b /usr/local/bin/../lib/gcc/arm-none-eabi/4.4.1/thumb2/libgcc.a(_arm_fixdfsi.o)
 .ARM.attributes
                0x00000e80       0x1b /usr/local/bin/../lib/gcc/arm-none-eabi/4.4.1/thumb2/libgcc.a(_arm_muldivsf3.o)
 .ARM.attributes
                0x00000e9b       0x1b /usr/local/bin/../lib/gcc/arm-none-eabi/4.4.1/thumb2/libgcc.a(_arm_fixsfsi.o)
 .ARM.attributes
                0x00000eb6       0x1b /usr/local/bin/../lib/gcc/arm-none-eabi/4.4.1/thumb2/libgcc.a(_aeabi_uldivmod.o)
 .ARM.attributes
                0x00000ed1       0x29 /usr/local/bin/../lib/gcc/arm-none-eabi/4.4.1/thumb2/libgcc.a(_fixdfdi.o)
 .ARM.attributes
                0x00000efa       0x29 /usr/local/bin/../lib/gcc/arm-none-eabi/4.4.1/thumb2/libgcc.a(_fixunsdfdi.o)
 .ARM.attributes
                0x00000f23       0x29 /usr/local/bin/../lib/gcc/arm-none-eabi/4.4.1/thumb2/libgcc.a(bpabi.o)
 .ARM.attributes
                0x00000f4c       0x1b /usr/local/bin/../lib/gcc/arm-none-eabi/4.4.1/thumb2/libgcc.a(_dvmd_tls.o)
 .ARM.attributes
                0x00000f67       0x1b /usr/local/bin/../lib/gcc/arm-none-eabi/4.4.1/thumb2/libgcc.a(_arm_fixunsdfsi.o)
 .ARM.attributes
                0x00000f82       0x29 /usr/local/bin/../lib/gcc/arm-none-eabi/4.4.1/thumb2/libgcc.a(_divdi3.o)
 .ARM.attributes
                0x00000fab       0x29 /usr/local/bin/../lib/gcc/arm-none-eabi/4.4.1/thumb2/libgcc.a(_udivdi3.o)
 .ARM.attributes
                0x00000fd4       0x1b /usr/local/bin/../lib/gcc/arm-none-eabi/4.4.1/thumb2/libgcc.a(_udivsi3.o)
 .ARM.attributes
                0x00000fef       0x29 /usr/local/bin/../lib/gcc/arm-none-eabi/4.4.1/../../../../arm-none-eabi/lib/thumb2/libc.a(lib_a-atol.o)
 .ARM.attributes
                0x00001018       0x29 /usr/local/bin/../lib/gcc/arm-none-eabi/4.4.1/../../../../arm-none-eabi/lib/thumb2/libc.a(lib_a-errno.o)
 .ARM.attributes
                0x00001041       0x29 /usr/local/bin/../lib/gcc/arm-none-eabi/4.4.1/../../../../arm-none-eabi/lib/thumb2/libc.a(lib_a-impure.o)
 .ARM.attributes
                0x0000106a       0x29 /usr/local/bin/../lib/gcc/arm-none-eabi/4.4.1/../../../../arm-none-eabi/lib/thumb2/libc.a(lib_a-init.o)
 .ARM.attributes
                0x00001093       0x29 /usr/local/bin/../lib/gcc/arm-none-eabi/4.4.1/../../../../arm-none-eabi/lib/thumb2/libc.a(lib_a-isalnum.o)
 .ARM.attributes
                0x000010bc       0x29 /usr/local/bin/../lib/gcc/arm-none-eabi/4.4.1/../../../../arm-none-eabi/lib/thumb2/libc.a(lib_a-isspace.o)
 .ARM.attributes
                0x000010e5       0x29 /usr/local/bin/../lib/gcc/arm-none-eabi/4.4.1/../../../../arm-none-eabi/lib/thumb2/libc.a(lib_a-malloc.o)
 .ARM.attributes
                0x0000110e       0x29 /usr/local/bin/../lib/gcc/arm-none-eabi/4.4.1/../../../../arm-none-eabi/lib/thumb2/libc.a(lib_a-mallocr.o)
 .ARM.attributes
                0x00001137       0x29 /usr/local/bin/../lib/gcc/arm-none-eabi/4.4.1/../../../../arm-none-eabi/lib/thumb2/libc.a(lib_a-memcmp.o)
 .ARM.attributes
                0x00001160       0x29 /usr/local/bin/../lib/gcc/arm-none-eabi/4.4.1/../../../../arm-none-eabi/lib/thumb2/libc.a(lib_a-memcpy.o)
 .ARM.attributes
                0x00001189       0x29 /usr/local/bin/../lib/gcc/arm-none-eabi/4.4.1/../../../../arm-none-eabi/lib/thumb2/libc.a(lib_a-memset.o)
 .ARM.attributes
                0x000011b2       0x29 /usr/local/bin/../lib/gcc/arm-none-eabi/4.4.1/../../../../arm-none-eabi/lib/thumb2/libc.a(lib_a-mlock.o)
 .ARM.attributes
                0x000011db       0x29 /usr/local/bin/../lib/gcc/arm-none-eabi/4.4.1/../../../../arm-none-eabi/lib/thumb2/libc.a(lib_a-rand.o)
 .ARM.attributes
                0x00001204       0x29 /usr/local/bin/../lib/gcc/arm-none-eabi/4.4.1/../../../../arm-none-eabi/lib/thumb2/libc.a(lib_a-sbrkr.o)
 .ARM.attributes
                0x0000122d       0x29 /usr/local/bin/../lib/gcc/arm-none-eabi/4.4.1/../../../../arm-none-eabi/lib/thumb2/libc.a(lib_a-strcat.o)
 .ARM.attributes
                0x00001256       0x29 /usr/local/bin/../lib/gcc/arm-none-eabi/4.4.1/../../../../arm-none-eabi/lib/thumb2/libc.a(lib_a-strchr.o)
 .ARM.attributes
                0x0000127f       0x29 /usr/local/bin/../lib/gcc/arm-none-eabi/4.4.1/../../../../arm-none-eabi/lib/thumb2/libc.a(lib_a-strcmp.o)
 .ARM.attributes
                0x000012a8       0x29 /usr/local/bin/../lib/gcc/arm-none-eabi/4.4.1/../../../../arm-none-eabi/lib/thumb2/libc.a(lib_a-strcpy.o)
 .ARM.attributes
                0x000012d1       0x29 /usr/local/bin/../lib/gcc/arm-none-eabi/4.4.1/../../../../arm-none-eabi/lib/thumb2/libc.a(lib_a-strlen.o)
 .ARM.attributes
                0x000012fa       0x29 /usr/local/bin/../lib/gcc/arm-none-eabi/4.4.1/../../../../arm-none-eabi/lib/thumb2/libc.a(lib_a-strncat.o)
 .ARM.attributes
                0x00001323       0x29 /usr/local/bin/../lib/gcc/arm-none-eabi/4.4.1/../../../../arm-none-eabi/lib/thumb2/libc.a(lib_a-strncmp.o)
 .ARM.attributes
                0x0000134c       0x29 /usr/local/bin/../lib/gcc/arm-none-eabi/4.4.1/../../../../arm-none-eabi/lib/thumb2/libc.a(lib_a-strncpy.o)
 .ARM.attributes
                0x00001375       0x29 /usr/local/bin/../lib/gcc/arm-none-eabi/4.4.1/../../../../arm-none-eabi/lib/thumb2/libc.a(lib_a-strrchr.o)
 .ARM.attributes
                0x0000139e       0x29 /usr/local/bin/../lib/gcc/arm-none-eabi/4.4.1/../../../../arm-none-eabi/lib/thumb2/libc.a(lib_a-strstr.o)
 .ARM.attributes
                0x000013c7       0x29 /usr/local/bin/../lib/gcc/arm-none-eabi/4.4.1/../../../../arm-none-eabi/lib/thumb2/libc.a(lib_a-strtol.o)
 .ARM.attributes
                0x000013f0       0x29 /usr/local/bin/../lib/gcc/arm-none-eabi/4.4.1/../../../../arm-none-eabi/lib/thumb2/libc.a(lib_a-strtoul.o)
 .ARM.attributes
                0x00001419       0x29 /usr/local/bin/../lib/gcc/arm-none-eabi/4.4.1/../../../../arm-none-eabi/lib/thumb2/libc.a(lib_a-strupr.o)
 .ARM.attributes
                0x00001442       0x29 /usr/local/bin/../lib/gcc/arm-none-eabi/4.4.1/../../../../arm-none-eabi/lib/thumb2/libc.a(lib_a-toupper.o)
 .ARM.attributes
                0x0000146b       0x29 /usr/local/bin/../lib/gcc/arm-none-eabi/4.4.1/../../../../arm-none-eabi/lib/thumb2/libc.a(lib_a-ctype_.o)
 .ARM.attributes
                0x00001494       0x29 /usr/local/bin/../lib/gcc/arm-none-eabi/4.4.1/../../../../arm-none-eabi/lib/thumb2/libc.a(lib_a-freer.o)
 .ARM.attributes
                0x000014bd       0x29 /usr/local/bin/../lib/gcc/arm-none-eabi/4.4.1/../../../../arm-none-eabi/lib/thumb2/libc.a(lib_a-reent.o)
 .ARM.attributes
                0x000014e6       0x29 /usr/local/bin/../lib/gcc/arm-none-eabi/4.4.1/thumb2/crtend.o
 .ARM.attributes
                0x0000150f       0x19 /usr/local/bin/../lib/gcc/arm-none-eabi/4.4.1/thumb2/crtn.o

/DISCARD/
 *(.note.GNU-stack)
LOAD build//Users/marcus/Dropbox/Studienarbeit/Sourcecode/StudienarbeitX/Library/libmaple/libmaple/adc.o
LOAD build//Users/marcus/Dropbox/Studienarbeit/Sourcecode/StudienarbeitX/Library/libmaple/libmaple/dac.o
LOAD build//Users/marcus/Dropbox/Studienarbeit/Sourcecode/StudienarbeitX/Library/libmaple/libmaple/dma.o
LOAD build//Users/marcus/Dropbox/Studienarbeit/Sourcecode/StudienarbeitX/Library/libmaple/libmaple/exti.o
LOAD build//Users/marcus/Dropbox/Studienarbeit/Sourcecode/StudienarbeitX/Library/libmaple/libmaple/flash.o
LOAD build//Users/marcus/Dropbox/Studienarbeit/Sourcecode/StudienarbeitX/Library/libmaple/libmaple/gpio.o
LOAD build//Users/marcus/Dropbox/Studienarbeit/Sourcecode/StudienarbeitX/Library/libmaple/libmaple/iwdg.o
LOAD build//Users/marcus/Dropbox/Studienarbeit/Sourcecode/StudienarbeitX/Library/libmaple/libmaple/nvic.o
LOAD build//Users/marcus/Dropbox/Studienarbeit/Sourcecode/StudienarbeitX/Library/libmaple/libmaple/pwr.o
LOAD build//Users/marcus/Dropbox/Studienarbeit/Sourcecode/StudienarbeitX/Library/libmaple/libmaple/rcc.o
LOAD build//Users/marcus/Dropbox/Studienarbeit/Sourcecode/StudienarbeitX/Library/libmaple/libmaple/spi.o
LOAD build//Users/marcus/Dropbox/Studienarbeit/Sourcecode/StudienarbeitX/Library/libmaple/libmaple/systick.o
LOAD build//Users/marcus/Dropbox/Studienarbeit/Sourcecode/StudienarbeitX/Library/libmaple/libmaple/timer.o
LOAD build//Users/marcus/Dropbox/Studienarbeit/Sourcecode/StudienarbeitX/Library/libmaple/libmaple/usart.o
LOAD build//Users/marcus/Dropbox/Studienarbeit/Sourcecode/StudienarbeitX/Library/libmaple/libmaple/usart_private.o
LOAD build//Users/marcus/Dropbox/Studienarbeit/Sourcecode/StudienarbeitX/Library/libmaple/libmaple/util.o
LOAD build//Users/marcus/Dropbox/Studienarbeit/Sourcecode/StudienarbeitX/Library/libmaple/libmaple/i2c.o
LOAD build//Users/marcus/Dropbox/Studienarbeit/Sourcecode/StudienarbeitX/Library/libmaple/libmaple/exc.o
LOAD build//Users/marcus/Dropbox/Studienarbeit/Sourcecode/StudienarbeitX/Library/libmaple/libmaple/usb/stm32f1/usb.o
LOAD build//Users/marcus/Dropbox/Studienarbeit/Sourcecode/StudienarbeitX/Library/libmaple/libmaple/usb/stm32f1/usb_reg_map.o
LOAD build//Users/marcus/Dropbox/Studienarbeit/Sourcecode/StudienarbeitX/Library/libmaple/libmaple/usb/stm32f1/usb_cdcacm.o
LOAD build//Users/marcus/Dropbox/Studienarbeit/Sourcecode/StudienarbeitX/Library/libmaple/libmaple/usb/usb_lib/usb_core.o
LOAD build//Users/marcus/Dropbox/Studienarbeit/Sourcecode/StudienarbeitX/Library/libmaple/libmaple/usb/usb_lib/usb_init.o
LOAD build//Users/marcus/Dropbox/Studienarbeit/Sourcecode/StudienarbeitX/Library/libmaple/libmaple/usb/usb_lib/usb_mem.o
LOAD build//Users/marcus/Dropbox/Studienarbeit/Sourcecode/StudienarbeitX/Library/libmaple/libmaple/usb/usb_lib/usb_regs.o
LOAD build//Users/marcus/Dropbox/Studienarbeit/Sourcecode/StudienarbeitX/Library/libmaple/libmaple/stm32f1/performance/isrs.o
LOAD build//Users/marcus/Dropbox/Studienarbeit/Sourcecode/StudienarbeitX/Library/libmaple/libmaple/stm32f1/performance/vector_table.o
LOAD build//Users/marcus/Dropbox/Studienarbeit/Sourcecode/StudienarbeitX/Library/libmaple/libmaple/stm32f1/adc.o
LOAD build//Users/marcus/Dropbox/Studienarbeit/Sourcecode/StudienarbeitX/Library/libmaple/libmaple/stm32f1/bkp.o
LOAD build//Users/marcus/Dropbox/Studienarbeit/Sourcecode/StudienarbeitX/Library/libmaple/libmaple/stm32f1/dma.o
LOAD build//Users/marcus/Dropbox/Studienarbeit/Sourcecode/StudienarbeitX/Library/libmaple/libmaple/stm32f1/exti.o
LOAD build//Users/marcus/Dropbox/Studienarbeit/Sourcecode/StudienarbeitX/Library/libmaple/libmaple/stm32f1/fsmc.o
LOAD build//Users/marcus/Dropbox/Studienarbeit/Sourcecode/StudienarbeitX/Library/libmaple/libmaple/stm32f1/gpio.o
LOAD build//Users/marcus/Dropbox/Studienarbeit/Sourcecode/StudienarbeitX/Library/libmaple/libmaple/stm32f1/i2c.o
LOAD build//Users/marcus/Dropbox/Studienarbeit/Sourcecode/StudienarbeitX/Library/libmaple/libmaple/stm32f1/rcc.o
LOAD build//Users/marcus/Dropbox/Studienarbeit/Sourcecode/StudienarbeitX/Library/libmaple/libmaple/stm32f1/spi.o
LOAD build//Users/marcus/Dropbox/Studienarbeit/Sourcecode/StudienarbeitX/Library/libmaple/libmaple/stm32f1/timer.o
LOAD build//Users/marcus/Dropbox/Studienarbeit/Sourcecode/StudienarbeitX/Library/libmaple/libmaple/stm32f1/usart.o
LOAD build//Users/marcus/Dropbox/Studienarbeit/Sourcecode/StudienarbeitX/Library/libmaple/wirish/start.o
LOAD build//Users/marcus/Dropbox/Studienarbeit/Sourcecode/StudienarbeitX/Library/libmaple/wirish/start_c.o
LOAD build//Users/marcus/Dropbox/Studienarbeit/Sourcecode/StudienarbeitX/Library/libmaple/wirish/syscalls.o
LOAD build//Users/marcus/Dropbox/Studienarbeit/Sourcecode/StudienarbeitX/Library/libmaple/wirish/stm32f1/util_hooks.o
LOAD build//Users/marcus/Dropbox/Studienarbeit/Sourcecode/StudienarbeitX/Library/libmaple/wirish/boards.o
LOAD build//Users/marcus/Dropbox/Studienarbeit/Sourcecode/StudienarbeitX/Library/libmaple/wirish/cxxabi-compat.o
LOAD build//Users/marcus/Dropbox/Studienarbeit/Sourcecode/StudienarbeitX/Library/libmaple/wirish/ext_interrupts.o
LOAD build//Users/marcus/Dropbox/Studienarbeit/Sourcecode/StudienarbeitX/Library/libmaple/wirish/HardwareSerial.o
LOAD build//Users/marcus/Dropbox/Studienarbeit/Sourcecode/StudienarbeitX/Library/libmaple/wirish/HardwareTimer.o
LOAD build//Users/marcus/Dropbox/Studienarbeit/Sourcecode/StudienarbeitX/Library/libmaple/wirish/Print.o
LOAD build//Users/marcus/Dropbox/Studienarbeit/Sourcecode/StudienarbeitX/Library/libmaple/wirish/pwm.o
LOAD build//Users/marcus/Dropbox/Studienarbeit/Sourcecode/StudienarbeitX/Library/libmaple/wirish/usb_serial.o
LOAD build//Users/marcus/Dropbox/Studienarbeit/Sourcecode/StudienarbeitX/Library/libmaple/wirish/HardwareSPI.o
LOAD build//Users/marcus/Dropbox/Studienarbeit/Sourcecode/StudienarbeitX/Library/libmaple/wirish/wirish_analog.o
LOAD build//Users/marcus/Dropbox/Studienarbeit/Sourcecode/StudienarbeitX/Library/libmaple/wirish/wirish_digital.o
LOAD build//Users/marcus/Dropbox/Studienarbeit/Sourcecode/StudienarbeitX/Library/libmaple/wirish/wirish_math.o
LOAD build//Users/marcus/Dropbox/Studienarbeit/Sourcecode/StudienarbeitX/Library/libmaple/wirish/wirish_shift.o
LOAD build//Users/marcus/Dropbox/Studienarbeit/Sourcecode/StudienarbeitX/Library/libmaple/wirish/wirish_time.o
LOAD build//Users/marcus/Dropbox/Studienarbeit/Sourcecode/StudienarbeitX/Library/libmaple/wirish/stm32f1/boards_setup.o
LOAD build//Users/marcus/Dropbox/Studienarbeit/Sourcecode/StudienarbeitX/Library/libmaple/wirish/stm32f1/wirish_digital.o
LOAD build//Users/marcus/Dropbox/Studienarbeit/Sourcecode/StudienarbeitX/Library/libmaple/wirish/stm32f1/wirish_debug.o
LOAD build//Users/marcus/Dropbox/Studienarbeit/Sourcecode/StudienarbeitX/Library/libmaple/wirish/boards/maple/board.o
LOAD build//Users/marcus/Dropbox/Studienarbeit/Sourcecode/StudienarbeitX/Library/libmaple/libraries/Servo/Servo.o
LOAD build//Users/marcus/Dropbox/Studienarbeit/Sourcecode/StudienarbeitX/Library/libmaple/libraries/LiquidCrystal/LiquidCrystal.o
LOAD build//Users/marcus/Dropbox/Studienarbeit/Sourcecode/StudienarbeitX/Library/libmaple/libraries/Wire/WireBase.o
LOAD build//Users/marcus/Dropbox/Studienarbeit/Sourcecode/StudienarbeitX/Library/libmaple/libraries/Wire/HardWire.o
LOAD build//Users/marcus/Dropbox/Studienarbeit/Sourcecode/StudienarbeitX/Library/libmaple/libraries/Wire/Wire.o
LOAD build//Users/marcus/Dropbox/Studienarbeit/Sourcecode/StudienarbeitX/Library/TinyWebServer/TinyWebServer.o
LOAD build//Users/marcus/Dropbox/Studienarbeit/Sourcecode/StudienarbeitX/Library/WiFlySerial/SpiUart.o
LOAD build//Users/marcus/Dropbox/Studienarbeit/Sourcecode/StudienarbeitX/Library/WiFlySerial/WiFlySerial.o
LOAD build//Users/marcus/Dropbox/Studienarbeit/Sourcecode/StudienarbeitX/Library/WiFlySerial/WFSEthernet.o
LOAD build//Users/marcus/Dropbox/Studienarbeit/Sourcecode/StudienarbeitX/Library/WiFlySerial/WFSEthernetServer.o
LOAD build//Users/marcus/Dropbox/Studienarbeit/Sourcecode/StudienarbeitX/Library/WiFlySerial/WFSEthernetClient.o
LOAD build//Users/marcus/Dropbox/Studienarbeit/Sourcecode/StudienarbeitX/Library/WiFlySerial/WFSIPAddress.o
LOAD build//Users/marcus/Dropbox/Studienarbeit/Sourcecode/StudienarbeitX/TWS-HelloWorld.o
LOAD build/main.o
LOAD /usr/local/bin/../lib/gcc/arm-none-eabi/4.4.1/../../../../arm-none-eabi/lib/thumb2/libstdc++.a
LOAD /usr/local/bin/../lib/gcc/arm-none-eabi/4.4.1/../../../../arm-none-eabi/lib/thumb2/libm.a
START GROUP
LOAD /usr/local/bin/../lib/gcc/arm-none-eabi/4.4.1/thumb2/libgcc.a
LOAD /usr/local/bin/../lib/gcc/arm-none-eabi/4.4.1/../../../../arm-none-eabi/lib/thumb2/libc.a
END GROUP
LOAD /usr/local/bin/../lib/gcc/arm-none-eabi/4.4.1/thumb2/crtend.o
LOAD /usr/local/bin/../lib/gcc/arm-none-eabi/4.4.1/thumb2/crtn.o
OUTPUT(build/maple.elf elf32-littlearm)

.debug_ranges   0x00000000     0x2d68
 .debug_ranges  0x00000000       0x20 /usr/local/bin/../lib/gcc/arm-none-eabi/4.4.1/thumb2/crti.o
 .debug_ranges  0x00000020       0x30 build//Users/marcus/Dropbox/Studienarbeit/Sourcecode/StudienarbeitX/Library/libmaple/libmaple/adc.o
 .debug_ranges  0x00000050       0x30 build//Users/marcus/Dropbox/Studienarbeit/Sourcecode/StudienarbeitX/Library/libmaple/libmaple/dac.o
 .debug_ranges  0x00000080       0x20 build//Users/marcus/Dropbox/Studienarbeit/Sourcecode/StudienarbeitX/Library/libmaple/libmaple/dma.o
 .debug_ranges  0x000000a0       0x68 build//Users/marcus/Dropbox/Studienarbeit/Sourcecode/StudienarbeitX/Library/libmaple/libmaple/exti.o
 .debug_ranges  0x00000108       0x18 build//Users/marcus/Dropbox/Studienarbeit/Sourcecode/StudienarbeitX/Library/libmaple/libmaple/flash.o
 .debug_ranges  0x00000120       0x18 build//Users/marcus/Dropbox/Studienarbeit/Sourcecode/StudienarbeitX/Library/libmaple/libmaple/gpio.o
 .debug_ranges  0x00000138       0x20 build//Users/marcus/Dropbox/Studienarbeit/Sourcecode/StudienarbeitX/Library/libmaple/libmaple/iwdg.o
 .debug_ranges  0x00000158       0x30 build//Users/marcus/Dropbox/Studienarbeit/Sourcecode/StudienarbeitX/Library/libmaple/libmaple/nvic.o
 .debug_ranges  0x00000188       0x18 build//Users/marcus/Dropbox/Studienarbeit/Sourcecode/StudienarbeitX/Library/libmaple/libmaple/pwr.o
 .debug_ranges  0x000001a0       0x50 build//Users/marcus/Dropbox/Studienarbeit/Sourcecode/StudienarbeitX/Library/libmaple/libmaple/rcc.o
 .debug_ranges  0x000001f0       0xe0 build//Users/marcus/Dropbox/Studienarbeit/Sourcecode/StudienarbeitX/Library/libmaple/libmaple/spi.o
 .debug_ranges  0x000002d0       0x38 build//Users/marcus/Dropbox/Studienarbeit/Sourcecode/StudienarbeitX/Library/libmaple/libmaple/systick.o
 .debug_ranges  0x00000308      0x100 build//Users/marcus/Dropbox/Studienarbeit/Sourcecode/StudienarbeitX/Library/libmaple/libmaple/timer.o
 .debug_ranges  0x00000408       0x40 build//Users/marcus/Dropbox/Studienarbeit/Sourcecode/StudienarbeitX/Library/libmaple/libmaple/usart.o
 .debug_ranges  0x00000448       0x18 build//Users/marcus/Dropbox/Studienarbeit/Sourcecode/StudienarbeitX/Library/libmaple/libmaple/usart_private.o
 .debug_ranges  0x00000460       0x50 build//Users/marcus/Dropbox/Studienarbeit/Sourcecode/StudienarbeitX/Library/libmaple/libmaple/util.o
 .debug_ranges  0x000004b0      0x160 build//Users/marcus/Dropbox/Studienarbeit/Sourcecode/StudienarbeitX/Library/libmaple/libmaple/i2c.o
 .debug_ranges  0x00000610       0xd8 build//Users/marcus/Dropbox/Studienarbeit/Sourcecode/StudienarbeitX/Library/libmaple/libmaple/usb/stm32f1/usb.o
 .debug_ranges  0x000006e8       0x70 build//Users/marcus/Dropbox/Studienarbeit/Sourcecode/StudienarbeitX/Library/libmaple/libmaple/usb/stm32f1/usb_reg_map.o
 .debug_ranges  0x00000758      0x168 build//Users/marcus/Dropbox/Studienarbeit/Sourcecode/StudienarbeitX/Library/libmaple/libmaple/usb/stm32f1/usb_cdcacm.o
 .debug_ranges  0x000008c0       0xb0 build//Users/marcus/Dropbox/Studienarbeit/Sourcecode/StudienarbeitX/Library/libmaple/libmaple/usb/usb_lib/usb_core.o
 .debug_ranges  0x00000970       0x18 build//Users/marcus/Dropbox/Studienarbeit/Sourcecode/StudienarbeitX/Library/libmaple/libmaple/usb/usb_lib/usb_init.o
 .debug_ranges  0x00000988       0x20 build//Users/marcus/Dropbox/Studienarbeit/Sourcecode/StudienarbeitX/Library/libmaple/libmaple/usb/usb_lib/usb_mem.o
 .debug_ranges  0x000009a8      0x218 build//Users/marcus/Dropbox/Studienarbeit/Sourcecode/StudienarbeitX/Library/libmaple/libmaple/usb/usb_lib/usb_regs.o
 .debug_ranges  0x00000bc0       0x40 build//Users/marcus/Dropbox/Studienarbeit/Sourcecode/StudienarbeitX/Library/libmaple/libmaple/stm32f1/adc.o
 .debug_ranges  0x00000c00       0x48 build//Users/marcus/Dropbox/Studienarbeit/Sourcecode/StudienarbeitX/Library/libmaple/libmaple/stm32f1/bkp.o
 .debug_ranges  0x00000c48      0x278 build//Users/marcus/Dropbox/Studienarbeit/Sourcecode/StudienarbeitX/Library/libmaple/libmaple/stm32f1/dma.o
 .debug_ranges  0x00000ec0       0x18 build//Users/marcus/Dropbox/Studienarbeit/Sourcecode/StudienarbeitX/Library/libmaple/libmaple/stm32f1/exti.o
 .debug_ranges  0x00000ed8       0x30 build//Users/marcus/Dropbox/Studienarbeit/Sourcecode/StudienarbeitX/Library/libmaple/libmaple/stm32f1/gpio.o
 .debug_ranges  0x00000f08       0x80 build//Users/marcus/Dropbox/Studienarbeit/Sourcecode/StudienarbeitX/Library/libmaple/libmaple/stm32f1/i2c.o
 .debug_ranges  0x00000f88       0xd0 build//Users/marcus/Dropbox/Studienarbeit/Sourcecode/StudienarbeitX/Library/libmaple/libmaple/stm32f1/rcc.o
 .debug_ranges  0x00001058       0x20 build//Users/marcus/Dropbox/Studienarbeit/Sourcecode/StudienarbeitX/Library/libmaple/libmaple/stm32f1/spi.o
 .debug_ranges  0x00001078       0x48 build//Users/marcus/Dropbox/Studienarbeit/Sourcecode/StudienarbeitX/Library/libmaple/libmaple/stm32f1/timer.o
 .debug_ranges  0x000010c0       0x90 build//Users/marcus/Dropbox/Studienarbeit/Sourcecode/StudienarbeitX/Library/libmaple/libmaple/stm32f1/usart.o
 .debug_ranges  0x00001150       0x18 build//Users/marcus/Dropbox/Studienarbeit/Sourcecode/StudienarbeitX/Library/libmaple/wirish/start_c.o
 .debug_ranges  0x00001168       0x78 build//Users/marcus/Dropbox/Studienarbeit/Sourcecode/StudienarbeitX/Library/libmaple/wirish/syscalls.o
 .debug_ranges  0x000011e0       0x48 build//Users/marcus/Dropbox/Studienarbeit/Sourcecode/StudienarbeitX/Library/libmaple/wirish/stm32f1/util_hooks.o
 .debug_ranges  0x00001228       0xe8 build//Users/marcus/Dropbox/Studienarbeit/Sourcecode/StudienarbeitX/Library/libmaple/wirish/boards.o
 .debug_ranges  0x00001310       0x18 build//Users/marcus/Dropbox/Studienarbeit/Sourcecode/StudienarbeitX/Library/libmaple/wirish/cxxabi-compat.o
 .debug_ranges  0x00001328       0x40 build//Users/marcus/Dropbox/Studienarbeit/Sourcecode/StudienarbeitX/Library/libmaple/wirish/ext_interrupts.o
 .debug_ranges  0x00001368       0xd0 build//Users/marcus/Dropbox/Studienarbeit/Sourcecode/StudienarbeitX/Library/libmaple/wirish/HardwareSerial.o
 .debug_ranges  0x00001438      0x1a0 build//Users/marcus/Dropbox/Studienarbeit/Sourcecode/StudienarbeitX/Library/libmaple/wirish/HardwareTimer.o
 .debug_ranges  0x000015d8      0x128 build//Users/marcus/Dropbox/Studienarbeit/Sourcecode/StudienarbeitX/Library/libmaple/wirish/Print.o
 .debug_ranges  0x00001700       0x30 build//Users/marcus/Dropbox/Studienarbeit/Sourcecode/StudienarbeitX/Library/libmaple/wirish/pwm.o
 .debug_ranges  0x00001730       0xc0 build//Users/marcus/Dropbox/Studienarbeit/Sourcecode/StudienarbeitX/Library/libmaple/wirish/usb_serial.o
 .debug_ranges  0x000017f0      0x198 build//Users/marcus/Dropbox/Studienarbeit/Sourcecode/StudienarbeitX/Library/libmaple/wirish/HardwareSPI.o
 .debug_ranges  0x00001988       0x38 build//Users/marcus/Dropbox/Studienarbeit/Sourcecode/StudienarbeitX/Library/libmaple/wirish/wirish_analog.o
 .debug_ranges  0x000019c0       0x68 build//Users/marcus/Dropbox/Studienarbeit/Sourcecode/StudienarbeitX/Library/libmaple/wirish/wirish_digital.o
 .debug_ranges  0x00001a28       0x40 build//Users/marcus/Dropbox/Studienarbeit/Sourcecode/StudienarbeitX/Library/libmaple/wirish/wirish_math.o
 .debug_ranges  0x00001a68       0x30 build//Users/marcus/Dropbox/Studienarbeit/Sourcecode/StudienarbeitX/Library/libmaple/wirish/wirish_shift.o
 .debug_ranges  0x00001a98       0x20 build//Users/marcus/Dropbox/Studienarbeit/Sourcecode/StudienarbeitX/Library/libmaple/wirish/wirish_time.o
 .debug_ranges  0x00001ab8       0x38 build//Users/marcus/Dropbox/Studienarbeit/Sourcecode/StudienarbeitX/Library/libmaple/wirish/stm32f1/boards_setup.o
 .debug_ranges  0x00001af0       0x40 build//Users/marcus/Dropbox/Studienarbeit/Sourcecode/StudienarbeitX/Library/libmaple/wirish/stm32f1/wirish_digital.o
 .debug_ranges  0x00001b30       0x28 build//Users/marcus/Dropbox/Studienarbeit/Sourcecode/StudienarbeitX/Library/libmaple/wirish/stm32f1/wirish_debug.o
 .debug_ranges  0x00001b58       0x48 build//Users/marcus/Dropbox/Studienarbeit/Sourcecode/StudienarbeitX/Library/libmaple/wirish/boards/maple/board.o
 .debug_ranges  0x00001ba0       0xc0 build//Users/marcus/Dropbox/Studienarbeit/Sourcecode/StudienarbeitX/Library/libmaple/libraries/Servo/Servo.o
 .debug_ranges  0x00001c60      0x158 build//Users/marcus/Dropbox/Studienarbeit/Sourcecode/StudienarbeitX/Library/libmaple/libraries/LiquidCrystal/LiquidCrystal.o
 .debug_ranges  0x00001db8       0x90 build//Users/marcus/Dropbox/Studienarbeit/Sourcecode/StudienarbeitX/Library/libmaple/libraries/Wire/WireBase.o
 .debug_ranges  0x00001e48       0x50 build//Users/marcus/Dropbox/Studienarbeit/Sourcecode/StudienarbeitX/Library/libmaple/libraries/Wire/HardWire.o
 .debug_ranges  0x00001e98       0xe0 build//Users/marcus/Dropbox/Studienarbeit/Sourcecode/StudienarbeitX/Library/libmaple/libraries/Wire/Wire.o
 .debug_ranges  0x00001f78      0x208 build//Users/marcus/Dropbox/Studienarbeit/Sourcecode/StudienarbeitX/Library/TinyWebServer/TinyWebServer.o
 .debug_ranges  0x00002180      0x100 build//Users/marcus/Dropbox/Studienarbeit/Sourcecode/StudienarbeitX/Library/WiFlySerial/SpiUart.o
 .debug_ranges  0x00002280      0x5d8 build//Users/marcus/Dropbox/Studienarbeit/Sourcecode/StudienarbeitX/Library/WiFlySerial/WiFlySerial.o
 .debug_ranges  0x00002858      0x108 build//Users/marcus/Dropbox/Studienarbeit/Sourcecode/StudienarbeitX/Library/WiFlySerial/WFSEthernet.o
 .debug_ranges  0x00002960       0x78 build//Users/marcus/Dropbox/Studienarbeit/Sourcecode/StudienarbeitX/Library/WiFlySerial/WFSEthernetServer.o
 .debug_ranges  0x000029d8       0xa0 build//Users/marcus/Dropbox/Studienarbeit/Sourcecode/StudienarbeitX/Library/WiFlySerial/WFSEthernetClient.o
 .debug_ranges  0x00002a78       0x68 build//Users/marcus/Dropbox/Studienarbeit/Sourcecode/StudienarbeitX/Library/WiFlySerial/WFSIPAddress.o
 .debug_ranges  0x00002ae0       0xd0 build//Users/marcus/Dropbox/Studienarbeit/Sourcecode/StudienarbeitX/TWS-HelloWorld.o
 .debug_ranges  0x00002bb0       0xd0 /usr/local/bin/../lib/gcc/arm-none-eabi/4.4.1/thumb2/libgcc.a(_divdi3.o)
 .debug_ranges  0x00002c80       0xc8 /usr/local/bin/../lib/gcc/arm-none-eabi/4.4.1/thumb2/libgcc.a(_udivdi3.o)
 .debug_ranges  0x00002d48       0x20 /usr/local/bin/../lib/gcc/arm-none-eabi/4.4.1/thumb2/crtn.o
